# file opened: megamenu.a80
  1   0000
  2   0000                      .include "definitions.a80"
# file opened: definitions.a80
  1+  0000              ; Cartridge start memory address
  2+  0000              PROGRAM_START_ADDRESS   equ 6639
  3+  0000              PAGE_DATA_START_ADDRESS equ $c007
  4+  0000
  5+  0000              ; System memory addresses
  6+  0000              P_SAVE           equ $0003      ; Memory page save (mirror for port 02h)
  7+  0000              GRAPH_MODE	 equ $0B13	; Graphics mode save (mirror for port 06h)
  8+  0000              CHAIN            equ $1724      ; Last symbol in the symbol table
  9+  0000              INK              equ $0b4d      ; Ink color
 10+  0000              PAPER            equ $0b4e      ; Paper color
 11+  0000              BORDER           equ $0b4f      ; Border color register
 12+  0000              VIDEOMEM         equ $8000      ; start of the video memory
 13+  0000
 14+  0000              ; Memory addresses
 15+  0000              IMAGE_BUFFER0   equ $c000
 16+  0000              IMAGE_BUFFER1   equ $d000
 17+  0000              IMAGE_BUFFER2   equ $e000
 18+  0000
 19+  0000              ; Port definitions
 20+  0000              PAGE_REG          equ $02
 21+  0000              GRAPHICS_MODE_REG equ $06
 22+  0000
 23+  0000              CRTC_ADDRESS      equ $70
 24+  0000              CRTC_DATA         equ $71
 25+  0000
 26+  0000              ; Memory paging constants
 27+  0000              P_U0_U1_U2_SYS   equ $70
 28+  0000              P_U0_U1_U2_CART  equ $30
 29+  0000              P_SYS_U1_U2_CART equ $20
 30+  0000              P_U0_U1_VID_SYS  equ $50
 31+  0000              P_U0_U1_U2_U3    equ $b0
 32+  0000              P_U0_U1_VID_U3   equ $90
 33+  0000
 34+  0000              ; RST30h function codes
 35+  0000              KBD_CHIN        equ $91
 36+  0000              KBD_STATUS      equ $93
 37+  0000              VMODE           equ $04
 38+  0000              PAL             equ $0c
 39+  0000
 40+  0000              ; Keyboard codes
 41+  0000              JOY_RIGHT       equ $04
 42+  0000              JOY_LEFT        equ $13
 43+  0000              JOY_UP          equ $05
 44+  0000              JOY_DOWN        equ $18
 45+  0000              JOY_FIRE        equ $06
 46+  0000              RETURN          equ $0d
 47+  0000
 48+  0000              ; screen coordinates
 49+  0000              SCREEN_WIDTH              equ 64       ; TVC screen width in bytes
 50+  0000              GAME_IMAGE_WIDTH          equ 32       ; Game screen width in bytes
 51+  0000
 52+  0000              LEFT_IMAGE_COORDINATES    equ 88*SCREEN_WIDTH+VIDEOMEM
 53+  0000              CENTER_IMAGE_COORDINATES  equ 88*SCREEN_WIDTH+32/2+VIDEOMEM
 54+  0000              RIGHT_IMAGE_COORDINATES   equ 88*SCREEN_WIDTH+100/2+VIDEOMEM
 55+  0000
 56+  0000              GAME_IMAGE_HEIGHT         equ 120      ; Game screen height in lines
 57+  0000              LEFT_IMAGE_OFFSET         equ 18       ; Left game screen width in bytes
 58+  0000              RIGHT_IMAGE_WIDTH         equ 14       ; Right game screen width in bytes
 59+  0000
 60+  0000
# file closed: definitions.a80
  3   0000
  4   0000                      org     PROGRAM_START_ADDRESS
  5   19EF
  6   19EF                      ; BASIC program
  7   19EF 0B 01 00 F5          db      $0b, $01, $00, $f5, $20, $4e, $24, $a8, $31, $36, $ff   ; 1 DIM N$*16
  7   19F3 20 4E 24 A8
  7   19F7 31 36 FF
  8   19FA 0F 02 00 58          db      $0f, $02, $00, $58, $9a, "USR", $96, "6722", $95, $ff   ; 2 X=USR(6720)
  8   19FE 9A 55 53 52
  8   1A02 96 36 37 32
  8   1A06 32 95 FF
  9   1A09 12 03 00 ED          db      $12, $03, $00, $ed, $20, $4e, $24, $9d, $22, $22, $20, $b5, $20, $e8, $20, $4e, $24, $ff, $00 ; 3 IF N$<>"" THEN LOAD N$
  9   1A0D 20 4E 24 9D
  9   1A11 22 22 20 B5
  9   1A15 20 E8 20 4E
  9   1A19 24 FF 00
 10   1A1C
 11   1A1C
 12   1A1C                      ; BASIC SYMBOL TABLE
 13   1A1C 00 00 00...          ds      38
 14   1A42
 15   1A42                      ; Program start
 16   1A42 18 15                jr      START
 17   1A44
 18   1A44                      ; ** Variables **
 19   1A44
 20   1A44 00 00        IX_SAVE dw      0
 21   1A46 00 00        IY_SAVE dw      0
 22   1A48
 23   1A48 00           COLLECTION_INDEX        db      0
 24   1A49 00           COLLECTION_COUNT        db      0
 25   1A4A
 26   1A4A 00           IMAGE_INDEX             db      0
 27   1A4B 06           IMAGE_COUNT             db      6
 28   1A4C 00           YEAR_DEC                db      0
 29   1A4D 00 00        COLLECTION              dw      0
 30   1A4F 00           SCROLL_TEXT_DELAY       db      0
 31   1A50 00           SCROLL_PHASE            db      0
 32   1A51 00 00        SCROLL_CHARACTER        dw      0
 33   1A53
 34   1A53              LEFT_IMAGE_ADDRESS:
 35   1A53 00 C0                dw      IMAGE_BUFFER0
 36   1A55
 37   1A55              CENTER_IMAGE_ADDRESS:
 38   1A55 00 D0                dw      IMAGE_BUFFER1
 39   1A57
 40   1A57              RIGHT_IMAGE_ADDRESS:
 41   1A57 00 E0                dw      IMAGE_BUFFER2
 42   1A59
 43   1A59                      ; ** Program start **
 44   1A59              START:
 45   1A59 DD 22 44 1A          ld      (IX_SAVE), ix
 46   1A5D FD 22 46 1A          ld      (IY_SAVE), iy
 47   1A61
 48   1A61                      ; set video mode to 16 color
 49   1A61 0E 02                ld      c,2
 50   1A63 F7                   rst     30h
 51   1A64 04                   db      $04
 52   1A65
 53   1A65                      ; set CRTC interrupr position to the original value
 54   1A65 3E 0E                ld      a, 14
 55   1A67 D3 70                out     (CRTC_ADDRESS), a
 56   1A69 3E 0E                ld      a, $0e
 57   1A6B D3 71                out     (CRTC_DATA), a
 58   1A6D
 59   1A6D 3E 0F                ld      a, 15
 60   1A6F D3 70                out     (CRTC_ADDRESS), a
 61   1A71 3E FF                ld      a, $ff
 62   1A73 D3 71                out     (CRTC_DATA), a
 63   1A75
 64   1A75                      ; set border color to white
 65   1A75 3E AA                ld      a, $aa
 66   1A77 32 4F 0B             ld      (BORDER), a
 67   1A7A
 68   1A7A                      ; show main screen
 69   1A7A CD 3C 23             call    set_paging_U0_U1_VID_SYS        ; page in video memory
 70   1A7D
 71   1A7D 21 AE 28             ld      hl, megaplex+2                  ; show main screen
 72   1A80 11 00 80             ld      de, VIDEOMEM
 73   1A83 CD A4 23             call    dzx7_turbo
 74   1A86
 75   1A86                      ; draw 'cartridge' text
 76   1A86 3E 00                ld      a, 0
 77   1A88 CD 6E 1F             call    SetCharacterBackgroundColor
 78   1A8B
 79   1A8B 3E 15                ld      a, 16+5
 80   1A8D CD 83 1F             call    SetCharColor
 81   1A90
 82   1A90 01 1F 28             ld      bc, $281f
 83   1A93 21 A5 1E             ld      hl, CARTRIDGE_STRING
 84   1A96 16 FF                ld      d, 255
 85   1A98 CD D0 20             call    DrawStr
 86   1A9B
 87   1A9B CD 41 23             call    set_paging_U0_U1_U2_SYS        ; restore paging
 88   1A9E
 89   1A9E                      ; Init and draw menu
 90   1A9E CD 5D 1C             call    DrawMenu
 91   1AA1
 92   1AA1                      ; Init caroussel
 93   1AA1 AF                   xor     a
 94   1AA2 32 4A 1A             ld      (IMAGE_INDEX), a
 95   1AA5 CD 20 1D             call    InitCarousel
 96   1AA8
 97   1AA8                      ; init scroll text
 98   1AA8 CD 3C 23             call    set_paging_U0_U1_VID_SYS        ; page in video memory
 99   1AAB
100   1AAB 3E 07                ld      a, 7                            ; set character color
101   1AAD CD 83 1F             call    SetCharColor
102   1AB0
103   1AB0 3E 0F                ld      a, 15                           ; set background color
104   1AB2 CD 6E 1F             call    SetCharacterBackgroundColor
105   1AB5
106   1AB5 01 F0 00             ld      bc, 240                         ; draw to nonvisible area X=0, Y=240
107   1AB8 3E 20                ld      a, ' '
108   1ABA CD B1 1F             call    PutChar
109   1ABD
110   1ABD CD 41 23             call    set_paging_U0_U1_U2_SYS        ; restore paging
111   1AC0
112   1AC0 3E 00                ld      a, 0
113   1AC2 32 50 1A             ld      (SCROLL_PHASE), a
114   1AC5 21 B1 1E             ld      hl, SCROLL_TEXT
115   1AC8 22 51 1A             ld      (SCROLL_CHARACTER), hl
116   1ACB
117   1ACB              WaitForKey:
118   1ACB F7                   rst     30h
119   1ACC 93                   db      KBD_STATUS
120   1ACD 79                   ld      a, c
121   1ACE FE FF                cp      a, $ff
122   1AD0 20 21                jr      nz, ScrollText
123   1AD2
124   1AD2 F7                   rst     30h
125   1AD3 91                   db      KBD_CHIN
126   1AD4
127   1AD4 79                   ld      a, c
128   1AD5 FE 13                cp      JOY_LEFT
129   1AD7 CA 27 1C             jp      z, move_left
130   1ADA
131   1ADA FE 04                cp      JOY_RIGHT
132   1ADC CA F2 1B             jp      z, MoveRight
133   1ADF
134   1ADF FE 05                cp      JOY_UP
135   1AE1 CA C2 1B             jp      z, MoveUp
136   1AE4
137   1AE4 FE 18                cp      JOY_DOWN
138   1AE6 CA E1 1B             jp      z, MoveDown
139   1AE9
140   1AE9 FE 06                cp      JOY_FIRE
141   1AEB CA B2 1B             jp      z, RunProgram
142   1AEE
143   1AEE FE 0D                cp      RETURN
144   1AF0 CA B2 1B             jp      z, RunProgram
145   1AF3
146   1AF3              ScrollText:
147   1AF3 3A 4F 1A             ld      a, (SCROLL_TEXT_DELAY)
148   1AF6 3D                   dec     a
149   1AF7 32 4F 1A             ld      (SCROLL_TEXT_DELAY), a
150   1AFA 20 CF                jr      nz, WaitForKey
151   1AFC
152   1AFC 3E A0                ld      a, 160
153   1AFE 32 4F 1A             ld      (SCROLL_TEXT_DELAY), a
154   1B01
155   1B01 CD 06 1B             call    LeftScroll
156   1B04
157   1B04 18 C5                jr      WaitForKey
158   1B06
159   1B06              LeftScroll:
160   1B06 76                   halt
161   1B07
162   1B07 CD 3C 23             call    set_paging_U0_U1_VID_SYS        ; page in video memory
163   1B0A
164   1B0A 3A 50 1A             ld      a, (SCROLL_PHASE)               ; update scroll phase (scroll position within character)
165   1B0D 3C                   inc     a
166   1B0E E6 03                and     $03                             ; valid phase values are 0-3
167   1B10 32 50 1A             ld      (SCROLL_PHASE), a
168   1B13
169   1B13 B7                   or      a
170   1B14 20 20                jr      nz, LeftScrollPhaseNonzero
171   1B16
172   1B16                      ; at zero phase draw character
173   1B16
174   1B16 3E 07                ld      a, 7                            ; set character color
175   1B18 CD 83 1F             call    SetCharColor
176   1B1B
177   1B1B 3E 0F                ld      a, 15                           ; set background color
178   1B1D CD 6E 1F             call    SetCharacterBackgroundColor
179   1B20
180   1B20 2A 51 1A             ld      hl, (SCROLL_CHARACTER)          ; get character pos
181   1B23 7E                   ld      a, (hl)
182   1B24 23                   inc     hl
183   1B25 B7                   or      a                               ; end of string?
184   1B26 20 05                jr      nz, LeftScrollNoStringEnd
185   1B28
186   1B28 21 B1 1E             ld      hl, SCROLL_TEXT                 ; restart from the first character
187   1B2B 7E                   ld      a,(hl)
188   1B2C 23                   inc     hl
189   1B2D
190   1B2D              LeftScrollNoStringEnd:
191   1B2D 22 51 1A             ld      (SCROLL_CHARACTER), hl          ; store character address
192   1B30
193   1B30 01 F0 00             ld      bc, 240                         ; draw to nonvisible area X=0, Y=240
194   1B33 CD B1 1F             call    PutChar                         ; a register already contains the character
195   1B36
196   1B36              LeftScrollPhaseNonzero:
197   1B36 DD 21 00 BC          ld      ix, VIDEOMEM + SCREEN_WIDTH * 240
198   1B3A
199   1B3A                      ; scroll area to left by one pixel
200   1B3A 21 BF BA             ld      hl, VIDEOMEM + SCREEN_WIDTH * 235 - 1
201   1B3D 0E 05                ld      c, 5                            ; scroll are height = 5
202   1B3F
203   1B3F              LeftScrollLine:
204   1B3F                      ; get incoming pixel data
205   1B3F 3A 50 1A             ld      a, (SCROLL_PHASE)
206   1B42
207   1B42 FE 00                cp      a, 0
208   1B44 20 0A                jr      nz, ScrollPhase1
209   1B46
210   1B46 DD 7E 00             ld      a, (ix)                         ; load pixel data
211   1B49 E6 AA                and     a, $aa                          ; keep right pixel
212   1B4B CB 3F                srl     a                               ; left pixel -> right pixel
213   1B4D 57                   ld      d, a
214   1B4E 18 20                jr      LeftScrollLinePixels
215   1B50
216   1B50              ScrollPhase1:
217   1B50 FE 01                cp      a, 1
218   1B52 20 08                jr      nz, ScrollPhase2
219   1B54
220   1B54 DD 7E 00             ld      a, (ix)                         ; load pixel data
221   1B57 E6 55                and     a, $55                          ; keep right pixel
222   1B59 57                   ld      d, a
223   1B5A 18 14                jr      LeftScrollLinePixels
224   1B5C
225   1B5C              ScrollPhase2:
226   1B5C FE 02                cp      a, 2
227   1B5E 20 0A                jr      nz, ScrollPhase3
228   1B60
229   1B60 DD 7E 01             ld      a, (ix+1)                       ; load pixel data
230   1B63 E6 AA                and     a, $aa                          ; keep right pixel
231   1B65 CB 3F                srl     a                               ; left pixel -> right pixel
232   1B67 57                   ld      d, a
233   1B68
234   1B68 18 06                jr      LeftScrollLinePixels
235   1B6A
236   1B6A              ScrollPhase3:
237   1B6A DD 7E 01             ld      a, (ix+1)                       ; load pixel data
238   1B6D E6 55                and     a, $55                          ; keep right pixel
239   1B6F 57                   ld      d, a
240   1B70
241   1B70              LeftScrollLinePixels:
242   1B70 06 40                ld      b, SCREEN_WIDTH
243   1B72
244   1B72              LeftScrollPixel:
245   1B72 7E                   ld      a, (hl)                 ; load pixel
246   1B73 5F                   ld      e, a                    ; save pixel for scroll
247   1B74 CB 27                sla     a                       ; move one pixel to the left
248   1B76 E6 AA                and     $aa                     ; keep only the first pixel
249   1B78 B2                   or      d                       ; add second pixel
250   1B79 77                   ld      (hl), a                 ; save new pixel
251   1B7A CB 3B                srl     e                       ; left pixel -> right pixel
252   1B7C 3E 55                ld      a, $55                  ; keep only right
253   1B7E A3                   and     a, e
254   1B7F 57                   ld      d, a                    ; save it in d register
255   1B80 2B                   dec     hl                      ; next pixel
256   1B81 10 EF                djnz    LeftScrollPixel
257   1B83
258   1B83 11 40 00             ld      de, SCREEN_WIDTH
259   1B86 19                   add     hl, de
260   1B87 19                   add     hl, de
261   1B88 DD 19                add     ix, de
262   1B8A 0D                   dec     c
263   1B8B 20 B2                jr      nz, LeftScrollLine
264   1B8D
265   1B8D CD 41 23             call    set_paging_U0_U1_U2_SYS        ; restore paging
266   1B90
267   1B90 C9                   ret
268   1B91
269   1B91
270   1B91
271   1B91              ReturnToBasic:
272   1B91 DD 2A 44 1A          ld      ix, (IX_SAVE)
273   1B95 FD 2A 46 1A          ld      iy, (IY_SAVE)
274   1B99
275   1B99                      ; set border color to black
276   1B99 3E 00                ld      a, $00
277   1B9B 32 4F 0B             ld      (BORDER), a
278   1B9E
279   1B9E                      ; set video mode to 4 color
280   1B9E 0E 01                ld      c,1
281   1BA0 F7                   rst     30h
282   1BA1 04                   db      VMODE
283   1BA2
284   1BA2                      ; set ink to 1
285   1BA2 3E 01                ld      a, 1
286   1BA4 32 4D 0B             ld      (INK), a
287   1BA7
288   1BA7                      ; set paper to 0
289   1BA7 3E 00                ld      a, 0
290   1BA9 32 4E 0B             ld      (PAPER), a
291   1BAC
292   1BAC                      ; set first ink, paper palette color to black
293   1BAC 11 9F 1E             ld      de, PALETTE
294   1BAF F7                   rst     30h
295   1BB0 0C                   db      PAL
296   1BB1
297   1BB1 C9                   ret
298   1BB2
299   1BB2                      ;---------------------------------------------------------------------
300   1BB2                      ; Runs selected program
301   1BB2                      ; Input:
302   1BB2                      ; Output:
303   1BB2                      ;
304   1BB2              RunProgram:
305   1BB2 11 22 00             ld      de, GamesInfo.File
306   1BB5 CD 65 1E             call    GetCurrentGamesInfoAddress
307   1BB8
308   1BB8 11 AF 1E             ld      de, FILENAME_VARIABLE
309   1BBB 0E 02                ld      c, 2
310   1BBD CD 56 23             call    LETSTRINGVARIABLE
311   1BC0
312   1BC0 18 CF                jr      ReturnToBasic
313   1BC2
314   1BC2
315   1BC2                      ; Selects previous collection and updates the screen
316   1BC2              MoveUp:
317   1BC2 CD 0B 1D             call    SaveSelectionCollectionPos
318   1BC5 3A 48 1A             ld      a, (COLLECTION_INDEX)
319   1BC8 B7                   or      a
320   1BC9 20 06                jr      nz, LDecrementCollectionIndex
321   1BCB
322   1BCB 3A 49 1A             ld      a, (COLLECTION_COUNT)
323   1BCE 3D                   dec     a
324   1BCF 18 01                jr      LStoreIndex
325   1BD1
326   1BD1              LDecrementCollectionIndex:
327   1BD1 3D                   dec     a
328   1BD2
329   1BD2              LStoreIndex:
330   1BD2 32 48 1A             ld      (COLLECTION_INDEX), a           ; stores updated index
331   1BD5
332   1BD5 CD 5D 1C             call    DrawMenu                        ; update menu
333   1BD8
334   1BD8 CD 20 1D             call    InitCarousel                    ; reinit carousel with the current collection
335   1BDB
336   1BDB CD 56 1D             call    DrawCarousel                    ; update carousel
337   1BDE
338   1BDE C3 CB 1A             jp      WaitForKey
339   1BE1
340   1BE1                      ; Selects next collection and updates the screen
341   1BE1              MoveDown:
342   1BE1 CD 0B 1D             call    SaveSelectionCollectionPos      ; saves position
343   1BE4
344   1BE4 3A 49 1A             ld      a, (COLLECTION_COUNT)           ; increment collection index
345   1BE7 47                   ld      b, a                            ; or wrap around if overflows
346   1BE8 3A 48 1A             ld      a, (COLLECTION_INDEX)
347   1BEB 3C                   inc     a
348   1BEC B8                   cp      a, b
349   1BED 38 E3                jr      c, LStoreIndex
350   1BEF
351   1BEF AF                   xor     a
352   1BF0 18 E0                jr      LStoreIndex
353   1BF2
354   1BF2              MoveRight:
355   1BF2 ED 4B 53 1A          ld      bc, (LEFT_IMAGE_ADDRESS)
356   1BF6 2A 55 1A             ld      hl, (CENTER_IMAGE_ADDRESS)
357   1BF9 22 53 1A             ld      (LEFT_IMAGE_ADDRESS), hl
358   1BFC 2A 57 1A             ld      hl, (RIGHT_IMAGE_ADDRESS)
359   1BFF 22 55 1A             ld      (CENTER_IMAGE_ADDRESS), hl
360   1C02 ED 43 57 1A          ld      (RIGHT_IMAGE_ADDRESS), bc
361   1C06
362   1C06 3A 4B 1A             ld      a, (IMAGE_COUNT)
363   1C09 47                   ld      b, a
364   1C0A 3A 4A 1A             ld      a, (IMAGE_INDEX)
365   1C0D 3C                   inc     a
366   1C0E B8                   cp      a, b
367   1C0F 38 01                jr      c, move_right_1
368   1C11
369   1C11 AF                   xor     a
370   1C12
371   1C12              move_right_1:
372   1C12 32 4A 1A             ld      (IMAGE_INDEX), a
373   1C15
374   1C15 3C                   inc     a
375   1C16 B8                   cp      a, b
376   1C17 38 01                jr      c, move_right_2
377   1C19
378   1C19 AF                   xor     a
379   1C1A
380   1C1A              move_right_2:
381   1C1A ED 5B 57 1A          ld      de, (RIGHT_IMAGE_ADDRESS)
382   1C1E CD 82 1E             call    DecompressGameScreen
383   1C21
384   1C21 CD 56 1D             call    DrawCarousel
385   1C24
386   1C24 C3 CB 1A             jp      WaitForKey
387   1C27
388   1C27              move_left:
389   1C27 ED 4B 57 1A          ld      bc, (RIGHT_IMAGE_ADDRESS)
390   1C2B 2A 55 1A             ld      hl, (CENTER_IMAGE_ADDRESS)
391   1C2E 22 57 1A             ld      (RIGHT_IMAGE_ADDRESS), hl
392   1C31 2A 53 1A             ld      hl, (LEFT_IMAGE_ADDRESS)
393   1C34 22 55 1A             ld      (CENTER_IMAGE_ADDRESS), hl
394   1C37 ED 43 53 1A          ld      (LEFT_IMAGE_ADDRESS), bc
395   1C3B
396   1C3B 3A 4B 1A             ld      a, (IMAGE_COUNT)
397   1C3E 47                   ld      b, a
398   1C3F 3A 4A 1A             ld      a, (IMAGE_INDEX)
399   1C42 B7                   or      a
400   1C43 20 01                jr      nz, move_left_1
401   1C45
402   1C45 78                   ld      a, b
403   1C46
404   1C46              move_left_1:
405   1C46 3D                   dec     a
406   1C47 32 4A 1A             ld      (IMAGE_INDEX), a
407   1C4A
408   1C4A 3D                   dec     a
409   1C4B F2 50 1C             jp      p, move_left_2
410   1C4E
411   1C4E 78                   ld      a, b
412   1C4F 3D                   dec     a
413   1C50
414   1C50              move_left_2:
415   1C50 ED 5B 53 1A          ld      de, (LEFT_IMAGE_ADDRESS)
416   1C54 CD 82 1E             call    DecompressGameScreen
417   1C57
418   1C57 CD 56 1D             call    DrawCarousel
419   1C5A
420   1C5A C3 CB 1A             jp      WaitForKey
421   1C5D
422   1C5D
423   1C5D              DrawMenu:
424   1C5D CD 3C 23             call    set_paging_U0_U1_VID_SYS        ; page in video memory
425   1C60
426   1C60 3E 00                ld      a, 0
427   1C62 32 49 1A             ld      (COLLECTION_COUNT), a
428   1C65 FD 21 7C 28          ld      iy, GAMES_COLLECTION
429   1C69
430   1C69              LNextMenuItem:
431   1C69 FD 7E 00             ld      a, (IY+GamesCollection.Count)   ; check for last item in the list
432   1C6C B7                   or      a
433   1C6D 20 04                jr      nz, LMenuNextItem
434   1C6F
435   1C6F CD 41 23             call    set_paging_U0_U1_U2_SYS        ; restore paging
436   1C72 C9                   ret
437   1C73
438   1C73              LMenuNextItem:
439   1C73 3A 49 1A             ld      a, (COLLECTION_COUNT)           ; check for selected collection index
440   1C76 47                   ld      b, a
441   1C77 3A 48 1A             ld      a, (COLLECTION_INDEX)           ; load selected index
442   1C7A B8                   cp      a, b
443   1C7B 20 2A                jr      nz, LNotSelected
444   1C7D
445   1C7D                      ; update collection information
446   1C7D FD 7E 00             ld      a, (IY+GamesCollection.Count)   ; check for last item in the list
447   1C80 32 4B 1A             ld      (IMAGE_COUNT), a
448   1C83
449   1C83 FD 7E 01             ld      a, (IY+GamesCollection.Index)
450   1C86 32 4A 1A             ld      (IMAGE_INDEX), a
451   1C89
452   1C89 FD 7E 09             ld      a, (IY+GamesCollection.YearDec)
453   1C8C 32 4C 1A             ld      (YEAR_DEC), a
454   1C8F
455   1C8F FD 7E 0A             ld      a, (IY+GamesCollection.Collection)
456   1C92 32 4D 1A             ld      (COLLECTION), a
457   1C95
458   1C95 FD 7E 0B             ld      a, (IY+GamesCollection.Collection+1)
459   1C98 32 4E 1A             ld      (COLLECTION+1), a
460   1C9B
461   1C9B                      ; set selected colors
462   1C9B 3E 0D                ld      a, 13
463   1C9D CD 6E 1F             call    SetCharacterBackgroundColor
464   1CA0
465   1CA0 3E 25                ld      a, 32+5
466   1CA2 CD 83 1F             call    SetCharColor
467   1CA5
468   1CA5 18 0A                jr      LDrawMenu
469   1CA7
470   1CA7              LNotSelected:
471   1CA7                      ; set non-selected color
472   1CA7 3E 0F                ld      a, 15
473   1CA9 CD 6E 1F             call    SetCharacterBackgroundColor
474   1CAC
475   1CAC 3E 25                ld      a, 32+5
476   1CAE CD 83 1F             call    SetCharColor
477   1CB1
478   1CB1              LDrawMenu:
479   1CB1 0E 00                ld      c, 0
480   1CB3 CD FB 1C             call    GetMenuCoordinates
481   1CB6 3E 0A                ld      a, 10
482   1CB8 CD 98 23             call    DrawHorizontalLine
483   1CBB
484   1CBB 0E 01                ld      c, 1
485   1CBD CD FB 1C             call    GetMenuCoordinates
486   1CC0 3E 0A                ld      a, 10
487   1CC2 CD 98 23             call    DrawHorizontalLine
488   1CC5
489   1CC5                      ; year text addess
490   1CC5 FD E5                push    iy
491   1CC7 E1                   pop     hl
492   1CC8 01 02 00             ld      bc, GamesCollection.Year
493   1CCB 09                   add     hl, bc
494   1CCC
495   1CCC                      ; draw year
496   1CCC 0E 02                ld      c, 2
497   1CCE CD FB 1C             call    GetMenuCoordinates
498   1CD1 16 08                ld      d, 8
499   1CD3 CD D0 20             call    DrawStr
500   1CD6
501   1CD6 0E 07                ld      c, 7
502   1CD8 CD FB 1C             call    GetMenuCoordinates
503   1CDB 3E 0A                ld      a, 10
504   1CDD CD 98 23             call    DrawHorizontalLine
505   1CE0
506   1CE0 0E 08                ld      c, 8
507   1CE2 CD FB 1C             call    GetMenuCoordinates
508   1CE5 3E 0A                ld      a, 10
509   1CE7 CD 98 23             call    DrawHorizontalLine
510   1CEA
511   1CEA 21 49 1A             ld      hl, COLLECTION_COUNT
512   1CED 34                   inc     (hl)
513   1CEE
514   1CEE 01 0C 00             ld      bc, GamesCollection
515   1CF1 FD E5                push    iy
516   1CF3 E1                   pop     hl
517   1CF4 09                   add     hl, bc
518   1CF5 E5                   push    hl
519   1CF6 FD E1                pop     iy
520   1CF8
521   1CF8 C3 69 1C             jp      LNextMenuItem
522   1CFB
523   1CFB                      ;---------------------------------------------------------------------
524   1CFB                      ; Calculates menu item coordinates
525   1CFB                      ; Input:  C - Offset within the menu item
526   1CFB                      ; Output: B - X coordinate of the menuitem
527   1CFB                      ;         C - Y coordiante of the menuitem
528   1CFB              GetMenuCoordinates:
529   1CFB 3A 49 1A             ld      a, (COLLECTION_COUNT)           ; load current index
530   1CFE 47                   ld      b, a
531   1CFF 87                   add     a, a                            ; multiply by 9
532   1D00 87                   add     a, a
533   1D01 87                   add     a, a
534   1D02 80                   add     a, b
535   1D03
536   1D03 81                   add     a, c                            ; add offset to the position
537   1D04
538   1D04 0E 21                ld      c, $21                          ; First menu item Y pos
539   1D06 81                   add     a, c
540   1D07 4F                   ld      c, a                            ; Y coorinate to c register
541   1D08 06 1C                ld      b, $1c                          ; X coordinate
542   1D0A C9                   ret
543   1D0B
544   1D0B                      ;---------------------------------------------------------------------
545   1D0B                      ; Saves current selected image index into the collection data
546   1D0B                      ; Input: -
547   1D0B                      ; Output: -
548   1D0B              SaveSelectionCollectionPos:
549   1D0B 3A 48 1A             ld      a, (COLLECTION_INDEX)           ; calculate Index address of the current collection
550   1D0E 47                   ld      b,  a                           ; HL = COLLECTION_INDEX * sizeof(GamesCollection) + GamesCollection.Index
551   1D0F 21 7D 28             ld      hl, GAMES_COLLECTION + GamesCollection.Index
552   1D12 11 0C 00             ld      de, GamesCollection
553   1D15 B7                   or      a
554   1D16 28 03                jr      z, LStorePos
555   1D18
556   1D18              LCalculatePosAddres:
557   1D18 19                   add     hl, de
558   1D19 10 FD                djnz    LCalculatePosAddres
559   1D1B
560   1D1B              LStorePos:
561   1D1B 3A 4A 1A             ld      a, (IMAGE_INDEX)                ; save pos
562   1D1E 77                   ld      (hl), a
563   1D1F
564   1D1F C9                   ret
565   1D20
566   1D20                      ;---------------------------------------------------------------------
567   1D20                      ; Initializes image carousel
568   1D20                      ; Input: -
569   1D20                      ; Output: -
570   1D20              InitCarousel:
571   1D20                      ; init image carousell
572   1D20 21 00 C0             ld      hl, IMAGE_BUFFER0               ; reset buffers
573   1D23 22 53 1A             ld      (LEFT_IMAGE_ADDRESS), hl
574   1D26
575   1D26 21 00 D0             ld      hl, IMAGE_BUFFER1
576   1D29 22 55 1A             ld      (CENTER_IMAGE_ADDRESS), hl
577   1D2C
578   1D2C 21 00 E0             ld      hl, IMAGE_BUFFER2
579   1D2F 22 57 1A             ld      (RIGHT_IMAGE_ADDRESS), hl
580   1D32
581   1D32                      ; load screens
582   1D32 3A 4B 1A             ld      a, (IMAGE_COUNT)                ; left screen
583   1D35 3D                   dec     a
584   1D36 ED 5B 53 1A          ld      de, (LEFT_IMAGE_ADDRESS)
585   1D3A CD 82 1E             call    DecompressGameScreen
586   1D3D
587   1D3D 3A 4A 1A             ld      a, (IMAGE_INDEX)                ; center screen
588   1D40 ED 5B 55 1A          ld      de, (CENTER_IMAGE_ADDRESS)
589   1D44 CD 82 1E             call    DecompressGameScreen
590   1D47
591   1D47 3A 4A 1A             ld      a, (IMAGE_INDEX)                ; right screen
592   1D4A 3C                   inc     a
593   1D4B ED 5B 57 1A          ld      de, (RIGHT_IMAGE_ADDRESS)
594   1D4F CD 82 1E             call    DecompressGameScreen
595   1D52
596   1D52 CD 56 1D             call    DrawCarousel
597   1D55
598   1D55 C9                   ret
599   1D56
600   1D56                      ;---------------------------------------------------------------------
601   1D56                      ; Draws image carusel
602   1D56                      ; Input: -
603   1D56                      ; Output: -
604   1D56              DrawCarousel:
605   1D56 CD 4B 23             call    set_paging_U0_U1_VID_U3         ; set paging
606   1D59
607   1D59                      ; draw center screen
608   1D59 3E 78                ld      a, GAME_IMAGE_HEIGHT
609   1D5B 11 10 96             ld      de, CENTER_IMAGE_COORDINATES
610   1D5E 2A 55 1A             ld      hl, (CENTER_IMAGE_ADDRESS)
611   1D61
612   1D61              next_line:
613   1D61 01 20 00             ld      bc, GAME_IMAGE_WIDTH
614   1D64 ED B0                ldir
615   1D66
616   1D66 EB                   ex      hl, de
617   1D67 01 20 00             ld      bc, SCREEN_WIDTH - GAME_IMAGE_WIDTH
618   1D6A 09                   add     hl, bc
619   1D6B EB                   ex      hl, de
620   1D6C
621   1D6C 3D                   dec     a
622   1D6D 20 F2                jr      nz, next_line
623   1D6F
624   1D6F                      ; draw left screen
625   1D6F 11 00 96             ld      de, LEFT_IMAGE_COORDINATES
626   1D72 2A 53 1A             ld      hl, (LEFT_IMAGE_ADDRESS)
627   1D75 01 12 00             ld      bc, LEFT_IMAGE_OFFSET
628   1D78 09                   add     hl, bc
629   1D79
630   1D79 DD 26 BF             ld      xh, $bf
631   1D7C DD 2E 15             ld      xl, $15
632   1D7F
633   1D7F 0E 78                ld      c, GAME_IMAGE_HEIGHT
634   1D81
635   1D81              start_copy_left_image_line:
636   1D81 06 0E                ld      b, GAME_IMAGE_WIDTH - LEFT_IMAGE_OFFSET
637   1D83
638   1D83              copy_left_image_line:
639   1D83 7E                   ld      a, (hl)
640   1D84 DD A4                and     xh
641   1D86 DD B5                or      xl
642   1D88 12                   ld      (de), a
643   1D89 23                   inc     hl
644   1D8A 13                   inc     de
645   1D8B 10 F6                djnz    copy_left_image_line
646   1D8D
647   1D8D 0D                   dec     c
648   1D8E 28 22                jr      z, left_image_finished
649   1D90
650   1D90 79                   ld      a, c                            ; save line counter
651   1D91 01 12 00             ld      bc, LEFT_IMAGE_OFFSET
652   1D94 09                   add     hl, bc
653   1D95 EB                   ex      hl, de
654   1D96 01 32 00             ld      bc, SCREEN_WIDTH -(GAME_IMAGE_WIDTH - LEFT_IMAGE_OFFSET)
655   1D99 09                   add     hl,  bc
656   1D9A EB                   ex      hl, de
657   1D9B 4F                   ld      c, a                            ; restore line counter
658   1D9C
659   1D9C DD 7D                ld      a,  xl
660   1D9E FE 15                cp      a, $15
661   1DA0 20 08                jr      nz, left_next_mask
662   1DA2
663   1DA2 DD 26 7F             ld      xh, $7f
664   1DA5 DD 2E 2A             ld      xl, $2A
665   1DA8
666   1DA8 18 D7                jr      start_copy_left_image_line
667   1DAA
668   1DAA              left_next_mask:
669   1DAA DD 26 BF             ld      xh, $bf
670   1DAD DD 2E 15             ld      xl, $15
671   1DB0
672   1DB0 18 CF                jr      start_copy_left_image_line
673   1DB2
674   1DB2              left_image_finished:
675   1DB2                      ; draw right screen
676   1DB2 11 32 96             ld      de, RIGHT_IMAGE_COORDINATES
677   1DB5 2A 57 1A             ld      hl, (RIGHT_IMAGE_ADDRESS)
678   1DB8
679   1DB8 DD 26 7F             ld      xh, $7f
680   1DBB DD 2E 2A             ld      xl, $2A
681   1DBE
682   1DBE 0E 78                ld      c, GAME_IMAGE_HEIGHT
683   1DC0
684   1DC0              start_copy_right_image_line:
685   1DC0 06 0E                ld      b, RIGHT_IMAGE_WIDTH
686   1DC2
687   1DC2              copy_right_image_line:
688   1DC2 7E                   ld      a, (hl)
689   1DC3 DD A4                and     xh
690   1DC5 DD B5                or      xl
691   1DC7 12                   ld      (de), a
692   1DC8 23                   inc     hl
693   1DC9 13                   inc     de
694   1DCA 10 F6                djnz    copy_right_image_line
695   1DCC
696   1DCC 0D                   dec     c
697   1DCD 28 22                jr      z, right_image_finished
698   1DCF
699   1DCF 79                   ld      a, c                            ; save line counter
700   1DD0 01 12 00             ld      bc, GAME_IMAGE_WIDTH - RIGHT_IMAGE_WIDTH
701   1DD3 09                   add     hl, bc
702   1DD4 EB                   ex      hl, de
703   1DD5 01 32 00             ld      bc, SCREEN_WIDTH - RIGHT_IMAGE_WIDTH
704   1DD8 09                   add     hl,  bc
705   1DD9 EB                   ex      hl, de
706   1DDA 4F                   ld      c, a                            ; restore line counter
707   1DDB
708   1DDB DD 7D                ld      a,  xl
709   1DDD FE 15                cp      a, $15
710   1DDF 20 08                jr      nz, right_next_mask
711   1DE1
712   1DE1 DD 26 7F             ld      xh, $7f
713   1DE4 DD 2E 2A             ld      xl, $2A
714   1DE7
715   1DE7 18 D7                jr      start_copy_right_image_line
716   1DE9
717   1DE9              right_next_mask:
718   1DE9 DD 26 BF             ld      xh, $bf
719   1DEC DD 2E 15             ld      xl, $15
720   1DEF
721   1DEF 18 CF                jr      start_copy_right_image_line
722   1DF1
723   1DF1              right_image_finished:
724   1DF1
725   1DF1 3E 05                ld      a, 5
726   1DF3 CD 83 1F             call    SetCharColor
727   1DF6
728   1DF6 3E 00                ld      a, 0
729   1DF8 CD 6E 1F             call    SetCharacterBackgroundColor
730   1DFB
731   1DFB 3A 4A 1A             ld      a, (IMAGE_INDEX)
732   1DFE 6F                   ld      l, a
733   1DFF 3A 4C 1A             ld      a, (YEAR_DEC)
734   1E02 85                   add     a, l
735   1E03 6F                   ld      l, a
736   1E04 26 00                ld      h, 0
737   1E06 3E 00                ld      a, 0
738   1E08 01 E2 10             ld      bc, $10e2
739   1E0B CD 00 21             call    DrawNumber
740   1E0E 21 A3 1E             ld      hl, RESULTS_END_STRING
741   1E11 16 FF                ld      d, 255
742   1E13 CD D0 20             call    DrawStr
743   1E16
744   1E16 3A 4B 1A             ld      a, (IMAGE_COUNT)
745   1E19 47                   ld      b, a
746   1E1A 3A 4A 1A             ld      a, (IMAGE_INDEX)
747   1E1D 3C                   inc     a
748   1E1E B8                   cp      a, b
749   1E1F 38 01                jr      c, index_ok
750   1E21
751   1E21 AF                   xor     a
752   1E22
753   1E22              index_ok:
754   1E22                      ; draw place number
755   1E22 6F                   ld      l, a
756   1E23 3A 4C 1A             ld      a, (YEAR_DEC)
757   1E26 85                   add     a, l
758   1E27 6F                   ld      l, a
759   1E28 26 00                ld      h, 0
760   1E2A 3E 00                ld      a, 0
761   1E2C 01 E2 34             ld      bc, $34e2
762   1E2F CD 00 21             call    DrawNumber
763   1E32 21 A3 1E             ld      hl, RESULTS_END_STRING
764   1E35 16 FF                ld      d, 255
765   1E37 CD D0 20             call    DrawStr
766   1E3A
767   1E3A                      ; draw game title
768   1E3A 3A 4A 1A             ld      a,(IMAGE_INDEX)                 ; HL = COLLECTION + IMAGE_INDEX * sizeof(GamesInfo)
769   1E3D 6F                   ld      l, a
770   1E3E 26 00                ld      h, 0
771   1E40 29                   add     hl, hl
772   1E41 29                   add     hl, hl
773   1E42 29                   add     hl, hl
774   1E43 29                   add     hl, hl
775   1E44
776   1E44 4D                   ld      c, l
777   1E45 44                   ld      b, h
778   1E46
779   1E46 29                   add     hl, hl
780   1E47 09                   add     hl, bc
781   1E48
782   1E48 3A 4A 1A             ld      a, (IMAGE_INDEX)
783   1E4B 4F                   ld      c, a
784   1E4C 06 00                ld      b, 0
785   1E4E 09                   add     hl, bc
786   1E4F 09                   add     hl, bc
787   1E50
788   1E50 01 02 00             ld      bc, GamesInfo.Title
789   1E53 09                   add     hl, bc
790   1E54 ED 4B 4D 1A          ld      bc, (COLLECTION)
791   1E58 09                   add     hl, bc
792   1E59
793   1E59 01 41 01             ld      bc, $0141
794   1E5C 16 20                ld      d, 32
795   1E5E CD D0 20             call    DrawStr
796   1E61
797   1E61 CD 41 23             call    set_paging_U0_U1_U2_SYS         ; restore paging
798   1E64
799   1E64 C9                   ret
800   1E65
801   1E65
802   1E65                      ;---------------------------------------------------------------------
803   1E65                      ; Gets the current GamesInfo struct address
804   1E65                      ; Input:  DE - offset within the struct
805   1E65                      ; Output: HL - address of the struct's member
806   1E65              GetCurrentGamesInfoAddress:
807   1E65 3A 4A 1A             ld      a,(IMAGE_INDEX)                 ; HL = COLLECTION + IMAGE_INDEX * sizeof(GamesInfo)
808   1E68 6F                   ld      l, a
809   1E69 26 00                ld      h, 0
810   1E6B 29                   add     hl, hl
811   1E6C 29                   add     hl, hl
812   1E6D 29                   add     hl, hl
813   1E6E 29                   add     hl, hl
814   1E6F
815   1E6F 4D                   ld      c, l
816   1E70 44                   ld      b, h
817   1E71
818   1E71 29                   add     hl, hl
819   1E72 09                   add     hl, bc
820   1E73
821   1E73 3A 4A 1A             ld      a, (IMAGE_INDEX)
822   1E76 4F                   ld      c, a
823   1E77 06 00                ld      b, 0
824   1E79 09                   add     hl, bc
825   1E7A 09                   add     hl, bc
826   1E7B
827   1E7B 19                   add     hl, de
828   1E7C ED 4B 4D 1A          ld      bc, (COLLECTION)
829   1E80 09                   add     hl, bc
830   1E81
831   1E81 C9                   ret
832   1E82
833   1E82                      ;---------------------------------------------------------------------
834   1E82                      ; Decompresses game screen into the given buffer
835   1E82                      ; Input:  A - Game screen index
836   1E82                      ;         DE - target buffer
837   1E82              DecompressGameScreen:
838   1E82 01 32 00             ld      bc, GamesInfo
839   1E85 2A 4D 1A             ld      hl, (COLLECTION)
840   1E88 B7                   or      a
841   1E89 28 04                jr      z, LDecompressNoMultiply
842   1E8B
843   1E8B              LDecompressMultiply:
844   1E8B 09                   add     hl, bc
845   1E8C 3D                   dec     a
846   1E8D 20 FC                jr      nz, LDecompressMultiply
847   1E8F
848   1E8F              LDecompressNoMultiply:
849   1E8F 7E                   ld      a, (hl)
850   1E90 23                   inc     hl
851   1E91 66                   ld      h, (hl)
852   1E92 6F                   ld      l, a
853   1E93 23                   inc     hl                              ; skip size
854   1E94 23                   inc     hl
855   1E95
856   1E95 CD 46 23             call    set_paging_U0_U1_U2_U3
857   1E98
858   1E98 CD A4 23             call    dzx7_turbo
859   1E9B
860   1E9B CD 41 23             call    set_paging_U0_U1_U2_SYS
861   1E9E
862   1E9E C9                   ret
863   1E9F
864   1E9F              PALETTE:
865   1E9F 00 00 44 41          db      0, 0, 68, 65
866   1EA3
867   1EA3              RESULTS_END_STRING:
868   1EA3 40 00                db      "@", 0
869   1EA5
870   1EA5              CARTRIDGE_STRING:
871   1EA5 43 41 52 54          db      "CARTRIDGE",0
871   1EA9 52 49 44 47
871   1EAD 45 00
872   1EAF
873   1EAF              FILENAME_VARIABLE:
874   1EAF 4E 24                db      "N$"
875   1EB1
876   1EB1              SCROLL_TEXT:
877   1EB1 4D 45 47 41          db      "MEGAPLEX CARTRIDGE BY LASZLO ARVAI AND MIHALY SARANSZKI               "
877   1EB5 50 4C 45 58
877   1EB9 20 43 41 52
877   1EBD 54 52 49 44
877   1EC1 47 45 20 42
877   1EC5 59 20 4C 41
877   1EC9 53 5A 4C 4F
877   1ECD 20 41 52 56
877   1ED1 41 49 20 41
877   1ED5 4E 44 20 4D
877   1ED9 49 48 41 4C
877   1EDD 59 20 53 41
877   1EE1 52 41 4E 53
877   1EE5 5A 4B 49 20
877   1EE9 20 20 20 20
877   1EED 20 20 20 20
877   1EF1 20 20 20 20
877   1EF5 20 20
878   1EF7 43 4F 4E 54          db      "CONTAINS VIDEOTON TV COMPUTER GAME DEVELOPMENT COMPETITIONS 2019-2021"
878   1EFB 41 49 4E 53
878   1EFF 20 56 49 44
878   1F03 45 4F 54 4F
878   1F07 4E 20 54 56
878   1F0B 20 43 4F 4D
878   1F0F 50 55 54 45
878   1F13 52 20 47 41
878   1F17 4D 45 20 44
878   1F1B 45 56 45 4C
878   1F1F 4F 50 4D 45
878   1F23 4E 54 20 43
878   1F27 4F 4D 50 45
878   1F2B 54 49 54 49
878   1F2F 4F 4E 53 20
878   1F33 32 30 31 39
878   1F37 2D 32 30 32
878   1F3B 31
879   1F3C 20 20 20 20          db      "                               ", 0
879   1F40 20 20 20 20
879   1F44 20 20 20 20
879   1F48 20 20 20 20
879   1F4C 20 20 20 20
879   1F50 20 20 20 20
879   1F54 20 20 20 20
879   1F58 20 20 20 00
880   1F5C
881   1F5C                      include "chars.a80"
# file opened: chars.a80
  1+  1F5C
  2+  1F5C              ;-----------------------------------------------------------------------------------------
  3+  1F5C              ;	Karakter kirakó és szám konvertáló rutinok
  4+  1F5C              ;-----------------------------------------------------------------------------------------
  5+  1F5C
  6+  1F5C              		;{	SetCharColor
  7+  1F5C              		;	'A': alsó 4 (0-3) bit color index, 4. bit ha 1, akkor maszkolva teszi ki a szöveget.
  8+  1F5C              		;	Az 5. bitnek csak a maszkolt kirakásnál van jelentése: ha az 1-ben áll, akkor a szóköz fele szélességgel lesz kirakva
  9+  1F5C              CharColorTable:
 10+  1F5C 00                   db	COLOR_BLACK*3
 11+  1F5D 03                   db	COLOR_DARKBLUE*3
 12+  1F5E 0C                   db	COLOR_DARKRED*3
 13+  1F5F 0F                   db	COLOR_DARKMAGENTA*3
 14+  1F60 30                   db	COLOR_DARKGREEN*3
 15+  1F61 33                   db	COLOR_DARKCYAN*3
 16+  1F62 3C                   db	COLOR_DARKYELLOW*3
 17+  1F63 3F                   db	COLOR_GRAY*3
 18+  1F64 C0                   db	COLOR_BLACK2*3
 19+  1F65 C3                   db	COLOR_BLUE*3
 20+  1F66 CC                   db	COLOR_RED*3
 21+  1F67 CF                   db	COLOR_MAGENTA*3
 22+  1F68 F0                   db	COLOR_GREEN*3
 23+  1F69 F3                   db	COLOR_CYAN*3
 24+  1F6A FC                   db	COLOR_YELLOW*3
 25+  1F6B FF                   db	COLOR_WHITE*3
 26+  1F6C
 27+  1F6C 00           CharColorSave:		db	0
 28+  1F6D 00           CharBackgroundSave:     db      0
 29+  1F6E
 30+  1F6E
 31+  1F6E              SetCharacterBackgroundColor:
 32+  1F6E 32 6D 1F             ld	(CharBackgroundSave),a          ; Save background color index
 33+  1F71
 34+  1F71 47                   ld	b,a			        ; load color index into B
 35+  1F72 E6 0F                and	15			        ; only index
 36+  1F74
 37+  1F74 21 5C 1F             ld	hl,CharColorTable	        ; calculate color table address
 38+  1F77 5F                   ld	e,a
 39+  1F78 16 00                ld	d,0
 40+  1F7A 19                   add	hl,de
 41+  1F7B
 42+  1F7B 7E                   ld	a,(hl)			        ; load color code to A
 43+  1F7C
 44+  1F7C                      ; store backgound color
 45+  1F7C 32 53 20             ld	(CharBackgroundSave1+1),a
 46+  1F7F 32 60 20             ld	(CharBackgroundSave2+1),a
 47+  1F82
 48+  1F82 C9                   ret
 49+  1F83
 50+  1F83
 51+  1F83              SetCharColor:
 52+  1F83 32 6C 1F             ld	(CharColorSave),a	; Lementjük a szín indexet
 53+  1F86
 54+  1F86 47                   ld	b,a			; 'B'-be kerül a szín index
 55+  1F87 E6 0F                and	15			; kimaszkoljuk az alsó 4 bitet, mert az indexet az írja le
 56+  1F89
 57+  1F89 21 5C 1F             ld	hl,CharColorTable	; Színtáblából kiválasztjuk a karakter színét ('E' regiszter)
 58+  1F8C 5F                   ld	e,a			; 'DE' = 'A'
 59+  1F8D 16 00                ld	d,0
 60+  1F8F 19                   add	hl,de			; 'HL'-hez hozzá adjuk a szín indexét, így 'HL' a táblázatban már az adott szín értékre mutat
 61+  1F90
 62+  1F90 7E                   ld	a,(hl)			; 'A'=színkód
 63+  1F91
 64+  1F91                      ; A következo részben attól függoen, hogy maszoklt vagy felülíró karakter módot választottunk átírjuk a PutChar eljérás programkódjában a hivatkozásokat
 65+  1F91 CB 60                bit	4,b
 66+  1F93 20 0E                jr	nz,@MaskMode
 67+  1F95
 68+  1F95                                      ; Felülíró karakter kirakónal..
 69+  1F95 32 4D 20                             ld	(CharColorSave1+1),a	; Elobb a szineket helyettesítjük be a programkódba
 70+  1F98 32 5A 20                             ld	(CharColorSave2+1),a
 71+  1F9B
 72+  1F9B 21 49 20                             ld	hl,PutCharOverwrite	; Majd a rutin belépo kódját az ugró vektorba
 73+  1F9E 22 47 20                             ld	(PutCharModeJump+1),hl
 74+  1FA1
 75+  1FA1 18 0C                                jr	@Exit
 76+  1FA3              @MaskMode
 77+  1FA3                                      ; Maszkos karakter kirakónal..
 78+  1FA3 32 78 20                             ld	(CharColorSaveMask1+1),a; Elobb a szineket helyettesítjük be a programkódba
 79+  1FA6 32 9A 20                             ld	(CharColorSaveMask2+1),a
 80+  1FA9
 81+  1FA9 21 6D 20                             ld	hl,PutCharMask
 82+  1FAC 22 47 20                             ld	(PutCharModeJump+1),hl	; Az ugróvektor most már a 'PutCharMask'-ra mutat
 83+  1FAF              @Exit
 84+  1FAF C9                                   ret
 85+  1FB0
 86+  1FB0                      ;}
 87+  1FB0
 88+  1FB0                      ;{ 	PutChar
 89+  1FB0                      ;	A: Character code
 90+  1FB0                      ;	B: X
 91+  1FB0                      ;	C: Y
 92+  1FB0
 93+  1FB0 00           SpacePropFlg		db	0			; Ez a flag 0-nál nagyobb, ha maszkolt kirakást szeretnénk félhosszú space karakterrel
 94+  1FB1
 95+  1FB1              PutChar							; Mivel a karakterek bitmap-je nem követi az asscii táblát - a nem használt karakterek képe nincs tárolva - ezért
 96+  1FB1                                                                      ; a karakter kód függvényében másként kell kezelnünk a számokat, az írásjeleket és a betuket
 97+  1FB1
 98+  1FB1 FE 20                                cp	32			; Space kódja ?
 99+  1FB3 20 2B                                jr	nz,@jump0		; Nem! elore a további ellenorzésekhez!
100+  1FB5
101+  1FB5                                      ; Space karakter
102+  1FB5 3A 6C 1F                             ld	a,(CharColorSave)	; Levizsgáljuk, hogy maszkolt karakter kirakás van-e?
103+  1FB8 CB 67                                bit	4,a
104+  1FBA 28 06                                jr	z,@jmpNotProp		; Ha nem maszkol, akkor tovább
105+  1FBC
106+  1FBC E6 20                                and	$20			; Csak a proportopnal bitet tartjuk meg
107+  1FBE 32 B0 1F                             ld	(SpacePropFlg),a
108+  1FC1 C9                                   ret				; Ha maszkos kirakás van, akkor nem rajzolunk semmit
109+  1FC2              @jmpNotProp
110+  1FC2 CB 6F                bit     5, a                    ; condensed space flag
111+  1FC4 28 15                jr      z, NormalSpace
112+  1FC6
113+  1FC6                      ; condensed space
114+  1FC6 CD BC 20             call    PosToVidmemAddress
115+  1FC9
116+  1FC9 3A 53 20             ld      a, (CharBackgroundSave1+1)
117+  1FCC
118+  1FCC 11 40 00             ld      de, 64
119+  1FCF 06 05                ld      b, 5
120+  1FD1
121+  1FD1              DrawSpaceLoop:
122+  1FD1 77                   ld      (hl), a
123+  1FD2 19                   add     hl, de
124+  1FD3 10 FC                djnz    DrawSpaceLoop
125+  1FD5
126+  1FD5 3E 20                ld      a, $20			                ; flag for condensed space
127+  1FD7 32 B0 1F             ld	(SpacePropFlg),a
128+  1FDA
129+  1FDA C9                   ret
130+  1FDB
131+  1FDB              NormalSpace
132+  1FDB 11 F6 22             ld	de,Char_Space		; 'DE'-be a Space címe kerül
133+  1FDE
134+  1FDE 18 63                                jr	@RawAddrOk
135+  1FE0              @jump0
136+  1FE0 FE 2B                                cp	'+'			; '+'?
137+  1FE2 20 05                                jr	nz,@jump2		; Nem! elore a további ellenorzésekhez!
138+  1FE4 11 00 23                             ld	de,Char_Plus		; 'DE'-be a '+' címe kerül
139+  1FE7 18 5A                                jr	@RawAddrOk
140+  1FE9              @jump2
141+  1FE9 FE 2E                                cp	'.'			; '.'?
142+  1FEB 20 05                                jr	nz,@jump3		; Nem! elore a további ellenorzésekhez!
143+  1FED 11 0A 23                             ld	de,Char_Dot		; 'DE'-be a '.' címe kerül
144+  1FF0 18 51                                jr	@RawAddrOk
145+  1FF2              @jump3
146+  1FF2 FE 40                                cp	'@'
147+  1FF4 20 05                                jr	nz,@jump4
148+  1FF6 11 1E 23                             ld	de,Char_Arrow
149+  1FF9 18 48                                jr	@RawAddrOk
150+  1FFB              @jump4
151+  1FFB FE 3A                                cp	':'
152+  1FFD 20 05                                jr	nz,@jump5
153+  1FFF 11 14 23                             ld	de,Char_DotDot
154+  2002 18 3F                                jr	@RawAddrOk
155+  2004
156+  2004              @jump5
157+  2004 FE 2D                                cp	'-'
158+  2006 20 05                                jr	nz,@jump6
159+  2008 11 32 23                             ld	de,Char_Minus
160+  200B 18 36                                jr	@RawAddrOk
161+  200D
162+  200D              @jump6
163+  200D FE 21                                cp	'!'
164+  200F 20 05                                jr	nz,@jump7
165+  2011 11 28 23                             ld	de,Char_Exclamation
166+  2014 18 2D                                jr	@RawAddrOk
167+  2016
168+  2016              @jump7
169+  2016 FE 23                                cp	'#'			; '#'? Ezzel jelöljük a tele négyzet karaktert a szövegben!!!
170+  2018 20 05                                jr	nz,@CheckNumberChar	; Nem! elore a további ellenorzésekhez!
171+  201A
172+  201A 11 EC 22                             ld	de,Char_Squere		; 'DE'-be a tele négyzet karakter kerül
173+  201D 18 24                                jr	@RawAddrOk
174+  201F              @CheckNumberChar
175+  201F FE 30                                cp	'0'			; Ellenorizzük, hogy 'A'-ban levo kód szám-e?
176+  2021 D8                                   ret	c			; Ha 'A' kisebb mint a '0' karakter kódja, akkor nem rakjuk ki'
177+  2022 FE 3A                                cp	'9'+1
178+  2024 28 06                                jr	z,@jump1		; Ha a nagyobb, mint a '9' karakter, akkor már csak betu lehet
179+  2026 30 04                                jr	nc,@jump1		; Irány a betu mezo ellenorzése
180+  2028 D6 30                                sub	'0'			; 'A'-ból kivonjuk a '0' karakter kódját, így 'A' már a számot tárolja ami megegyezik a karakter tábla elejétol szmított indexel
181+  202A 18 05                                jr	@CharDraw		; Kirajzoljuk az adott
182+  202C              @jump1
183+  202C FE 41                                cp	'A'			; A kód nagyobb-e mint az 'A' kódja?
184+  202E D8                                   ret	c			; ha kisebb, akkor nincs ilyen karakter letárolva, nem teszünk ki semmit
185+  202F D6 37                                sub	55			; Az 'A' karakter kódja 65. Mivel a karakter táblában eloször a 10 db szám van letárolva, és nekünk a karakter tábla indexére van szükségünk,
186+  2031                                                                      ; esért kivonunk a kerakter értékbol 55. (Kivonunk belole 65-öt, hozzá adunk 10-et - a szám karakterek számát)
187+  2031              @CharDraw
188+  2031 26 00                                ld	h,0			; 'HL'= a karakter index immáron 16 bites formában, 'A' regiszter a karakter tábla indexe, ezt tesszük át 'HL'-be
189+  2033 6F                                   ld	l,a
190+  2034
191+  2034 AF                                   xor     a
192+  2035 32 B0 1F                             ld      (SpacePropFlg), a
193+  2038
194+  2038 29                                   add	hl,hl			; 'HL'='HL'*10
195+  2039 54                                   ld	d,h
196+  203A 5D                                   ld	e,l
197+  203B 29                                   add	hl,hl
198+  203C 29                                   add	hl,hl
199+  203D 19                                   add	hl,de
200+  203E
201+  203E 11 84 21                             ld	de,CharacterTable	; 'DE' a legelso karakter adatra mutat
202+  2041 19                                   add	hl,de			; 'HL' az adott karakter map-jére mutat
203+  2042 EB                                   ex	de,hl			; Most már 'DE' mutat az aktuális karakter map-jére
204+  2043              @RawAddrOk:
205+  2043 CD BC 20                             call    PosToVidmemAddress
206+  2046
207+  2046 C3 49 20     PutCharModeJump		jp	PutCharOverwrite
208+  2049
209+  2049
210+  2049              PutCharOverwrite
211+  2049 06 05                ld	b,5			        ; one character is 5 line tall
212+  204B              @Inner1:
213+  204B 1A                   ld	a,(de)			        ; load first byte of the character row
214+  204C              CharColorSave1:
215+  204C E6 FF                and	$ff			        ; apply color
216+  204E 4F                   ld      c, a                            ; save pixel color to c register
217+  204F
218+  204F 1A                   ld	a,(de)			        ; read again character data
219+  2050 EE FF                xor     a, $ff                          ; change it to background mask
220+  2052              CharBackgroundSave1:
221+  2052 E6 00                and     a, $00                          ; add background color
222+  2054 B1                   or      a, c                            ; combine background and foreground color
223+  2055
224+  2055 77                   ld	(hl),a			        ; Store code in the screen memory
225+  2056
226+  2056 13                   inc	de			        ; Next character byte
227+  2057 23                   inc	hl
228+  2058
229+  2058 1A                   ld	a,(de)			        ; Character row second byte
230+  2059              CharColorSave2:
231+  2059 E6 FF                and	$ff			        ; apply color
232+  205B 4F                   ld      c, a                            ; save pixel color to c register
233+  205C
234+  205C 1A                   ld	a,(de)			        ; read again character data
235+  205D EE FF                xor     a, $ff                          ; change it to background mask
236+  205F              CharBackgroundSave2:
237+  205F E6 00                and     a, $00                          ; add background color
238+  2061 B1                   or      a, c                            ; combine background and foreground color
239+  2062
240+  2062 77                   ld	(hl),a			        ; Store code in the screen memory
241+  2063
242+  2063 13                   inc	de			        ; Next character byte
243+  2064
244+  2064
245+  2064 78                                   ld	a,b			; A 'B'-ben tárolt ciklus változót elmentjük ideiglenesen 'A'-ba
246+  2065 01 3F 00                             ld	bc,63
247+  2068 09                                   add	hl,bc			; 'HL'-hez hozzá adunk 63-at, így 'HL' a következo képernyo sorra lép
248+  2069 47                                   ld	b,a			; Az ideiglenesen elmentett ciklusváltozót vissza tesszük 'B'-be
249+  206A
250+  206A 10 DF                                djnz	@Inner1
251+  206C
252+  206C C9                                   ret
253+  206D
254+  206D              PutCharMask
255+  206D D5                                   push	de
256+  206E DD E1                                pop	ix
257+  2070
258+  2070 06 05                                ld	b,5			; 5 sorból áll egy karakter
259+  2072              @Inner2
260+  2072 DD 7E 00                             ld	a,(ix+0)		; A karakter RAW sor elso byte-ja 'A'-ba kerül
261+  2075 DD 23                                inc	ix			; 'DE' a következo címre lép
262+  2077
263+  2077 E6 FF        CharColorSaveMask1	and	$ff			; 'A' ban levo raw érték átszínezése
264+  2079
265+  2079 5E                                   ld	e,(hl)			; 'E' tárolja a kirakandó byte-ot, ami alapból a képernyon levo byte
266+  207A
267+  207A 4F                                   ld	c,a			; 'C'-be is átkerül az adott színure átfestett kirakandó byte
268+  207B E6 AA                                and	$aa			; 'A'-ban csak az elso pixel értéke kell!
269+  207D CA 86 20                             jp	z,@Skip1_1		; Ha az elso pixel üres, akkor nem kell kitenni semmit
270+  2080
271+  2080                                      ; Elso pixel maszkolása
272+  2080 57                                   ld	d,a			; 'D'-ben az elso pixel értéke
273+  2081 7B                                   ld	a,e			; 'A'-ba áttesszük az adott képen levo byte-ot
274+  2082 E6 55                                and	$55			; Ebbol csak a 2. pixel értékei kellenek, az elso pixelhez tartozó biteket 0-ba kell álljtani
275+  2084 B2                                   or	d			; Az adott pixelhez tartozó színkódot OR muvelettel rámásoljuk a képenyon eredeti tartalmát felülírva
276+  2085 5F                                   ld	e,a			; A továbbiakhoz 'E'-be mentjük az elso körben így összemixelt értéket
277+  2086              @Skip1_1
278+  2086 79                                   ld	a,c			; Jön a második pixel feldolgozása. Ehhez 'A'-ba vissza töltjük az eredeti szjn byteot
279+  2087 E6 55                                and	$55			; 'A'-ban csak a második pixel értéke kell!
280+  2089 CA 92 20                             jp	z,@Skip1_2		; A második pixel üres, nem kell további feldolgozás
281+  208C
282+  208C                                      ; Második pixel maszkolása
283+  208C 57                                   ld	d,a			; 'D'-be áttesszük a kirakandó 2. pixel hez tartozó biteket
284+  208D 7B                                   ld	a,e			; 'A'-ba kerül a képernyo adott címén értelmezett érték
285+  208E E6 AA                                and	$aa			; Most az elso pixelhez tartalmazo biteket hagyjuk meg, a 2. pixel bitjeit töröljük--
286+  2090 B2                                   or	d			; és rámásoljuk a zeloállított szin 2. pixelhez tartozó bitjeit
287+  2091 5F                                   ld	e,a
288+  2092              @Skip1_2
289+  2092                                      ; 'E' tartalmazza a háttérre maszkolt adatot
290+  2092 73                                   ld	(hl),e			; A szín kirakása a cél pozicióba, amit 'HL' mutat
291+  2093 23                                   inc	hl			; és növeljük a célpointer
292+  2094
293+  2094                                      ; Hogy ne kelljen vízszintesen ciklus - mivel egy karakter mindösszesen 2 byte (4 pixel) széles, ezért megismételjük a fenti kódot
294+  2094 DD 7E 00                             ld	a,(ix+0)		; A karakter RAW sor második byte-ja 'A'-ba kerül
295+  2097 DD 23                                inc	ix			; 'DE' a következo címre lép
296+  2099
297+  2099 E6 FF        CharColorSaveMask2	and	$ff			; 'A' ban levo raw érték átszínezése
298+  209B
299+  209B 5E                                   ld	e,(hl)			; 'E' tárolja a kirakandó byte-ot, ami alapból a képernyon levo byte
300+  209C
301+  209C 4F                                   ld	c,a			; 'C'-be is átkerül az adott színure átfestett kirakandó byte
302+  209D E6 AA                                and	$aa			; 'A'-ban csak az elso pixel értéke kell!
303+  209F CA A8 20                             jp	z,@Skip2_1		; Ha az elso pixel üres, akkor nem kell kitenni semmit
304+  20A2
305+  20A2                                      ; Elso pixel maszkolása
306+  20A2 57                                   ld	d,a			; 'D'-ben az elso pixel értéke
307+  20A3 7B                                   ld	a,e			; 'A'-ba áttesszük az adott képen levo byte-ot
308+  20A4 E6 55                                and	$55			; Az adott pixelhez tartozó színkódot OR muvelettel rámásoljuk a képenyon eredeti tartalmát felülírva
309+  20A6 B2                                   or	d			; Az adott pixelhez tartozó színkódot OR muvelettel rámásoljuk a képenyon eredeti tartalmát felülírva
310+  20A7 5F                                   ld	e,a			; A továbbiakhoz 'E'-be mentjük az elso körben így összemixelt értéket
311+  20A8              @Skip2_1
312+  20A8 79                                   ld	a,c			; Jön a második pixel feldolgozása. Ehhez 'A'-ba vissza töltjük az eredeti szjn byteot
313+  20A9 E6 55                                and	$55			; 'A'-ban csak a második pixel értéke kell!
314+  20AB CA B4 20                             jp	z,@Skip2_2		; A második pixel üres, nem kell további feldolgozás
315+  20AE
316+  20AE                                      ; Második pixel maszkolása
317+  20AE 57                                   ld	d,a			; 'D'-be áttesszük a kirakandó 2. pixel hez tartozó biteket
318+  20AF 7B                                   ld	a,e			; 'A'-ba kerül a képernyo adott címén értelmezett érték
319+  20B0 E6 AA                                and	$aa			; Most az elso pixelhez tartalmazo biteket hagyjuk meg, a 2. pixel bitjeit töröljük--
320+  20B2 B2                                   or	d			; és rámásoljuk a zeloállított szin 2. pixelhez tartozó bitjeit
321+  20B3 5F                                   ld	e,a
322+  20B4              @Skip2_2
323+  20B4                                      ; 'E' tartalmazza a háttérre maszkolt adatot
324+  20B4 73                                   ld	(hl),e			; A szín kirakása a cél pozicióba, amit 'HL' mutat
325+  20B5
326+  20B5 11 3F 00                             ld	de,63
327+  20B8 19                                   add	hl,de			; 'HL'-hez hozzá adunk 63-at, így 'HL' a következo képernyo sorra lép
328+  20B9
329+  20B9 10 B7                                djnz	@Inner2
330+  20BB
331+  20BB C9                                   ret
332+  20BC
333+  20BC                      ;---------------------------------------------------------------------
334+  20BC                      ; Calculates video memory address from coordinates
335+  20BC                      ; Input:  B - X
336+  20BC                      ;         C - Y
337+  20BC                      ; Output: HL - address
338+  20BC              PosToVidmemAddress:
339+  20BC 69                   ld      l, c                    ; load Y coordinates
340+  20BD 26 00                ld      h, 0
341+  20BF 29                   add     hl, hl                  ; y *64
342+  20C0 29                   add     hl, hl
343+  20C1 29                   add     hl, hl
344+  20C2 29                   add     hl, hl
345+  20C3 29                   add     hl, hl
346+  20C4 29                   add     hl, hl
347+  20C5
348+  20C5 48                   ld      c, b                    ; add x coordinate
349+  20C6 06 00                ld      b, 0
350+  20C8 09                   add     hl, bc
351+  20C9
352+  20C9 01 00 80             ld	bc,VIDEOMEM	        ; add video memory address
353+  20CC 09                   add	hl,bc
354+  20CD
355+  20CD C9                   ret
356+  20CE
357+  20CE                      ;}
358+  20CE
359+  20CE                      ;{	DrawStr, DrawColorStr
360+  20CE                      ;
361+  20CE                      ;	A  következo eláráshoz nem kell sok komment. Szépen kirakja a 'HL' által mutatott szöveget.
362+  20CE                      ;	A kirakási folyamat ciklikusan meghívja a PutChar metódust annyiszor, amennyit 'D'-ben megadunk, illetve, míg a bufferben nem talál záró 0 értéket
363+  20CE                      ; 	A szövegben található 13-as kódú 'Nev line' karaktert is figyelembe vesszük, hatására a szöveg kirakása új sorban folytatódik
364+  20CE                      ;
365+  20CE                      ; 	'HL': mutat a kiírandó szövegre
366+  20CE                      ;	'B': X
367+  20CE                      ;	'C': Y
368+  20CE                      ;	'D': kiírandó szöveg hossza
369+  20CE 00 00        @StoreStartPos		dw	0			; y,x
370+  20D0
371+  20D0              ;*	DrawColorStr
372+  20D0              ;*				ld	a,(hl)
373+  20D0              ;*				inc	hl
374+  20D0              ;*				call	SetCharColor
375+  20D0              DrawStr
376+  20D0 ED 43 CE 20                          ld	(@StoreStartPos),bc	; Lementjük a szöveg elején a szövek kezdo X,Y értékét, hogy esetlegesen az új sor kezdésekor rendelkezésre álljon
377+  20D4              @Inner
378+  20D4 7E                                   ld	a,(hl)			; 'A'-ba a buffer következo eleme
379+  20D5 23                                   inc	hl			; A buffer mutatóval a következo elemre állunk
380+  20D6 B7                                   or	a			; Ha a kirakandó karakter 0, akkor végeztünk még akkor is, ha egyébként 'D'-ben leírt kirakási hosszt nem értük el
381+  20D7 C8                                   ret	z
382+  20D8
383+  20D8 FE 0D                                cp	13			; 'New line' karakter??
384+  20DA 20 0E                                jr	nz,PutChar1		; Ha nem, akkor tovább a karakter kirajzolására
385+  20DC
386+  20DC ED 4B CE 20                          ld	bc,(@StoreStartPos)	; Ha 'New line' karakter volt, akkor 'BC'-be visszatöltjük az elozo sor kezdo X,Y pontját
387+  20E0 79                                   ld	a,c			; 'A' = Y
388+  20E1 C6 07                                add	a,CHAR_HEIGHT		; 'A' = Y + karakter magassága
389+  20E3 4F                                   ld	c,a			; 'C'-be vissza tesszük az új Y értéket
390+  20E4 ED 43 CE 20                          ld	(@StoreStartPos),bc	; Majd az X,Y értéket - mint új sor elso pozícióját - újra letároljuk, ha késobb szükség lenne rá
391+  20E8 18 11                                jr	@SkipChar
392+  20EA              PutChar1
393+  20EA E5                                   push	hl			; Kirakjuk a karaktert
394+  20EB D5                                   push	de
395+  20EC C5                                   push	bc
396+  20ED CD B1 1F                             call	PutChar
397+  20F0 C1                                   pop	bc
398+  20F1 D1                                   pop	de
399+  20F2 E1                                   pop	hl
400+  20F3
401+  20F3                                      ; 'B' tárolja karakter X pozícióját. Egy karakter 2 byte széles. Most hozzá adunk 1-et v. 2-t annak a függvényében, hogy a 'SpacePropFlg' flag be van-e kapcsolva
402+  20F3 04                                   inc	b
403+  20F4
404+  20F4 3A B0 1F                             ld	a,(SpacePropFlg)	; Levizsgáljuk, hogy maszkolt karakter kirakás van-e?
405+  20F7 B7                                   or	a
406+  20F8 20 01                                jr	nz,@SkipChar
407+  20FA
408+  20FA 04                                   inc	b
409+  20FB              @SkipChar
410+  20FB 15                                   dec	d			; Csökkentjük 'D' értékét,
411+  20FC C2 D4 20                             jp	nz,@Inner		; és ha még nem értünk az utolsó kirakandó karakterre, akkor vissza a ciklus elejére
412+  20FF
413+  20FF C9                                   ret
414+  2100                      ;}
415+  2100
416+  2100                      ;{	DrawNumber
417+  2100                      ; 	HL: A kiírandó szám
418+  2100                      ;	B: X
419+  2100                      ;	C: Y
420+  2100                      ;	A: A szám mezo szélessége. Ha A=0, akkor balra igazít különben jobbra
421+  2100              DrawNumber
422+  2100 F5                                   push	af			; 'A' mentése, mert a végén szükség lesz rá a jobbra igazításnál
423+  2101 C5                                   push	bc			; 'BC'-ben most az X,Y pozíció van, ezt azért kell menteni, mert erre meg majd a jobbra igazításnál és a szöveg kiírásnál lesz szükség
424+  2102
425+  2102 3E 00                                ld	a,0			; 'HL' karakterekké konvertálása
426+  2104 CD 2A 21                             call	ConvertDecNum16
427+  2107 51                                   ld	d,c			; Most már 'BC' a kiírandó szám hosszát mutatja (ez mindig kisebb 255-nél, tehát a 'C'-ben van a hossz), viszont a szöveg kiíráshoz 'D'-ben kell a hossz
428+  2108
429+  2108 C1                                   pop	bc			; Vissza töltjük 'BC'-be az X,Y pozíciót
430+  2109 F1                                   pop	af			; illeve 'A'-ba a szám mezo sélességét az igazításhoz
431+  210A
432+  210A B7                                   or	a			; Ha 'A' 0, akkor nem kell igazítani csak simán kiírni a szám buffer tartalmát
433+  210B 28 05                                jr	z,@jump
434+  210D
435+  210D 92                                   sub	d			; Jobbra igazítás: 'A' mutatja a szám mezo szélességét, 'D' pedig a konvertált szám hossza. 'A'-'B' megadja hány karakterrel kell arrébb tenni a kiírást
436+  210E D8                                   ret	c			; Ha túl kicsi a megadott szám mezo hossz, akkor nincs kiírás
437+  210F
438+  210F 87                                   add	a,a			; A jobbra tolás hosszát szorozzuk 2-vel (1 karakter szélessége byt-okban)
439+  2110 80                                   add	a,b			; majd az X pozícióhoz ('B'-ben van) hozzá adjuk
440+  2111 47                                   ld	b,a
441+  2112              @jump
442+  2112 CD D0 20                             call	DrawStr			; Kiírjuk a szám buffer tartalmát
443+  2115 C9                                   ret
444+  2116
445+  2116
446+  2116 10 27 E8 03  NumRef			dw	10000,1000,100,10,0
446+  211A 64 00 0A 00
446+  211E 00 00
447+  2120 00           X10			db	0			; Tízszeres kijelzés - azaz 1db 0-t ír utána, ha ez nem 0.
448+  2121 30 30 30 30  NumBfr			db	'0','0','0','0','0','0',0
448+  2125 30 30 00
449+  2128 30 00        NumBfrEmpty		db	'0',0
450+  212A
451+  212A
452+  212A              ConvertDecNum16
453+  212A 3E 30                                ld	a,'0'
454+  212C 32 53 21                             ld	(@modify+1),a
455+  212F
456+  212F 7C                                   ld	a,h			; 'A'-ba tesszük 'H' értékét, majd.
457+  2130 B5                                   or	l			; or-oljuk 'L'-lel
458+  2131 20 05                                jr	nz,@n7
459+  2133                                                                      ; 'H' és 'L' értéke is 0 - azaz 'HL' = 0
460+  2133 21 28 21                             ld	hl,NumBfrEmpty		; 'HL'-el most már a 'NumBfrEmpty'-re mutatunk..
461+  2136 18 3B                                jr	StrLen			; és kiírjuk a 0-t karakteresen
462+  2138              @n7
463+  2138 01 21 21                             ld	bc,NumBfr		; 'BC' fogja mutatni a számot jelképezo karakterlánc aktuális címét. Most a buffer elejére állítjuk
464+  213B 11 16 21                             ld	de,NumRef		; 'DE' viszont a referencia tábla elemét fogja mutatni, amivel aktuálisan össze kell hasonlítani 'HL' értékét
465+  213E              @n2
466+  213E C5                                   push	bc
467+  213F
468+  213F EB                                   ex	de,hl			; 'DE'-t és 'HL'-t megcseréljük, így a referencia érték tábla aktuális elemére most 'HL' mutat
469+  2140 4E                                   ld	c,(hl)			; 'BC'-be betöltjük a '(HL)' címen levo adatot, 'HL'-t pedig léptetjük a késobbiekhez a következo elemre
470+  2141 23                                   inc	hl
471+  2142 46                                   ld	b,(hl)
472+  2143 23                                   inc	hl
473+  2144 EB                                   ex	de,hl			; 'HL'-t vissza rakjuk 'DE'-be
474+  2145
475+  2145 78                                   ld	a,b			; A referencia - 'BC' - értéke 0?
476+  2146 B1                                   or	c
477+  2147 28 15                                jr	z,@n3			; Ha 0, akkor vége a ciklikus vizsgálatnak
478+  2149
479+  2149 3E 2F                                ld	a,'0'-1			; 'A'-ba a '0' karakter értékénél egyel kisebb értéket teszünk, hogy a következo INC A utasításra pont '0' kerüljön bele
480+  214B              @n1
481+  214B 3C                                   inc	a			; A következo ciklusban megszámoljuk, hogy 'HL'-bol hányszor tudjuk kivonni 'BC'-t azaz az adott tizes helyiértéken levo referenciát
482+  214C ED 42                                sbc	hl,bc
483+  214E 30 FB                                jr	nc,@n1			; Ha 'HL' > 'BC', akkor még mindig lehet csökkenteni 'HL' értékét 'BC'-vel
484+  2150 09                                   add	hl,bc			; 'Most már 'HL' kisebb, mint a referencia, a kivonás után tulcsordulás történt, ezért kompenzálásként hozzá adjuk 'HL'-hez 'BC'-t, így 'HL' az osztás maradéka lesz
485+  2151
486+  2151 C1                                   pop	bc			; 'BC'-be visszatesszük a buffer pountert
487+  2152
488+  2152 FE 30        @modify			cp	'0'			; Megnézzük, hogy a kapott karakter érték '0'-e?
489+  2154 28 E8                                jr	z,@n2			; Ha '0', akkor vissz ugrunk a ciklus elejére, hogy kiértékeljük a következo tizedes helyiértéket
490+  2156
491+  2156 02                                   ld	(bc),a			; A 'BC' által mutatott buffer pozícióba letesszük a karakter kódját
492+  2157 03                                   inc	bc			; és növeljük a buffer pointer értékét
493+  2158
494+  2158 AF                                   xor	a
495+  2159 32 53 21                             ld	(@modify+1),a		; módosítjuk a "CP '0'" utasítást "CP 0"-ra
496+  215C 18 E0                                jr	@n2			; vissza a következo helyiérték kiértékelésére
497+  215E              @n3
498+  215E C1                                   pop	bc			; Vége a ciklusnak. Mivel a ciklus elso utasítában letettük a stack-be a 'BC' értékét, most vissza is tesszük ezt az értéket 'BC'-be
499+  215F
500+  215F 3E 30                                ld	a,'0'			; 'L'-ben az utolsó helyiérték osztásából a maradék lapul..
501+  2161 85                                   add	a,l			; ezért hozzá adjuk a '0' karakter értékét, ezzel megvan az utolsó helyiérték kódja
502+  2162 02                                   ld	(bc),a			; ezt bele tesszük a buffer adott pozíciójára
503+  2163 03                                   inc	bc			; majd növeljük a buffer mutató 'BC' értékét
504+  2164
505+  2164 3A 20 21                             ld	a,(X10)			; Az 'X10' jelzés be van állítva?
506+  2167 B7                                   or	a
507+  2168 28 04                                jr	z,@n4			; A jelzés értéke 0, tehát nincs.. a következo részt kihagyjuk
508+  216A
509+  216A 3E 30                                ld	a,'0'			; Az 'X10' jelzés be van állítva, a szám karakteresen leírt bufferében utána írunk még egy '0' karaktert
510+  216C 02                                   ld	(bc),a
511+  216D 03                                   inc	bc
512+  216E
513+  216E AF           @n4			xor	a			; Vége a konverziónak, már csak a záró 0-t kell az utolsó buffer pozícióra kirakni
514+  216F 02                                   ld	(bc),a
515+  2170              @n5
516+  2170 21 21 21                             ld	hl,NumBfr		; 'HL'-be betesszük a karakteresen ábrázolt számot leíró buffer kezdocímét
517+  2173
518+  2173                                      ; Önállóan is hívható eljárás. 'HL' a szövegbuffer elejét tartalmazza. Eredmény: 'BC'-ben a 'HL' által mutatott 0 értékkel lezárt szöveg hossza
519+  2173 E5           StrLen			push	hl
520+  2174 01 00 00                             ld	bc,0
521+  2177              @n6
522+  2177 7E                                   ld	a,(hl)
523+  2178 B7                                   or	a
524+  2179 28 04                                jr	z,@end
525+  217B 23                                   inc	hl
526+  217C 03                                   inc	bc
527+  217D 18 F8                                jr	@n6
528+  217F              @end
529+  217F E1                                   pop	hl
530+  2180 C9                                   ret
531+  2181
532+  2181
533+  2181                      ;{ 	szín és grafikus mód konstansok
534+  2181                      ; Palette színkódok Graphics 2 és Graphincs 4 módokban
535+  2181              COLOR_BLACK		equ	0			; Graphics 16 esetén az értéke: 0
536+  2181              COLOR_DARKBLUE		equ	1			; Graphics 16 esetén az értéke: 1
537+  2181              COLOR_DARKRED		equ	4			; Graphics 16 esetén az értéke: 2
538+  2181              COLOR_DARKMAGENTA	equ	5			; Graphics 16 esetén az értéke: 3
539+  2181              COLOR_DARKGREEN		equ	16			; Graphics 16 esetén az értéke: 4
540+  2181              COLOR_DARKCYAN		equ	17			; Graphics 16 esetén az értéke: 5
541+  2181              COLOR_DARKYELLOW	equ	20			; Graphics 16 esetén az értéke: 6
542+  2181              COLOR_GRAY		equ	21			; Graphics 16 esetén az értéke: 7
543+  2181              COLOR_BLACK2		equ	64			; Graphics 16 esetén az értéke: 8
544+  2181              COLOR_BLUE		equ	65			; Graphics 16 esetén az értéke: 9
545+  2181              COLOR_RED		equ	68			; Graphics 16 esetén az értéke: 10
546+  2181              COLOR_MAGENTA		equ	69			; Graphics 16 esetén az értéke: 11
547+  2181              COLOR_GREEN		equ	80			; Graphics 16 esetén az értéke: 12
548+  2181              COLOR_CYAN		equ	81			; Graphics 16 esetén az értéke: 13
549+  2181              COLOR_YELLOW		equ	84			; Graphics 16 esetén az értéke: 14
550+  2181              COLOR_WHITE		equ	85			; Graphics 16 esetén az értéke: 15
551+  2181                      ; Border színkódok (minden grafikus módban megegyeznek)
552+  2181              BORDER_BLACK		equ	0
553+  2181              BORDER_DARKBLUE		equ	2
554+  2181              BORDER_DARKRED		equ	8
555+  2181              BORDER_DARKMAGENTA	equ	10
556+  2181              BORDER_DARKGREEN	equ	32
557+  2181              BORDER_DARKCYAN		equ	34
558+  2181              BORDER_DARKYELLOW	equ	40
559+  2181              BORDER_GRAY		equ	42
560+  2181              BORDER_BLACK2		equ	128
561+  2181              BORDER_BLUE		equ	130
562+  2181              BORDER_RED		equ	138
563+  2181              BORDER_MAGENTA		equ	138
564+  2181              BORDER_GREEN		equ	160
565+  2181              BORDER_CYAN		equ	162
566+  2181              BORDER_YELLOW		equ	168
567+  2181              BORDER_WHITE		equ	170
568+  2181                      ;}
569+  2181
570+  2181
571+  2181                      ;{	Character map
572+  2181              CHAR_HEIGHT		equ	7
573+  2181
574+  2181 28           CharacterCnt		db	40
575+  2182 02           CharacterWidth		db	2
576+  2183 05           CharacterHeight		db	5
577+  2184              CharacterTable
578+  2184 FF AA AA AA  Char_0			db	255,170,170,170,170,170,170,170,255,170
578+  2188 AA AA AA AA
578+  218C FF AA
579+  218E 55 00 FF 00  Char_1			db	85,0,255,0,85,0,85,0,255,170
579+  2192 55 00 55 00
579+  2196 FF AA
580+  2198 FF AA 00 AA  Char_2			db	255,170,0,170,255,170,170,0,255,170
580+  219C FF AA AA 00
580+  21A0 FF AA
581+  21A2 FF AA 00 AA  Char_3			db	255,170,0,170,85,170,0,170,255,170
581+  21A6 55 AA 00 AA
581+  21AA FF AA
582+  21AC AA AA AA AA  Char_4			db	170,170,170,170,255,170,0,170,0,170
582+  21B0 FF AA 00 AA
582+  21B4 00 AA
583+  21B6 FF AA AA 00  Char_5			db	255,170,170,0,255,170,0,170,255,170
583+  21BA FF AA 00 AA
583+  21BE FF AA
584+  21C0 FF AA AA 00  Char_6			db	255,170,170,0,255,170,170,170,255,170
584+  21C4 FF AA AA AA
584+  21C8 FF AA
585+  21CA FF AA AA AA  Char_7			db	255,170,170,170,0,170,0,170,0,170
585+  21CE 00 AA 00 AA
585+  21D2 00 AA
586+  21D4 FF AA AA AA  Char_8			db	255,170,170,170,255,170,170,170,255,170
586+  21D8 FF AA AA AA
586+  21DC FF AA
587+  21DE FF AA AA AA  Char_9			db	255,170,170,170,255,170,0,170,255,170
587+  21E2 FF AA 00 AA
587+  21E6 FF AA
588+  21E8 FF AA AA AA  Char_A			db	255,170,170,170,255,170,170,170,170,170
588+  21EC FF AA AA AA
588+  21F0 AA AA
589+  21F2 FF AA AA AA  Char_B			db	255,170,170,170,255,0,170,170,255,170
589+  21F6 FF 00 AA AA
589+  21FA FF AA
590+  21FC FF AA AA AA  Char_C			db	255,170,170,170,170,0,170,170,255,170
590+  2200 AA 00 AA AA
590+  2204 FF AA
591+  2206 FF 00 AA AA  Char_D			db	255,0,170,170,170,170,170,170,255,170
591+  220A AA AA AA AA
591+  220E FF AA
592+  2210 FF AA AA 00  Char_E			db	255,170,170,0,255,0,170,0,255,170
592+  2214 FF 00 AA 00
592+  2218 FF AA
593+  221A FF AA AA 00  Char_F			db	255,170,170,0,255,0,170,0,170,0
593+  221E FF 00 AA 00
593+  2222 AA 00
594+  2224 FF AA AA 00  Char_G			db	255,170,170,0,170,170,170,170,255,170
594+  2228 AA AA AA AA
594+  222C FF AA
595+  222E AA AA AA AA  Char_H			db	170,170,170,170,255,170,170,170,170,170
595+  2232 FF AA AA AA
595+  2236 AA AA
596+  2238 FF AA 55 00  Char_I			db	255,170,85,0,85,0,85,0,255,170
596+  223C 55 00 55 00
596+  2240 FF AA
597+  2242 FF AA 00 AA  Char_J			db	255,170,0,170,0,170,170,170,255,0
597+  2246 00 AA AA AA
597+  224A FF 00
598+  224C AA AA AA AA  Char_K			db	170,170,170,170,255,0,170,170,170,170
598+  2250 FF 00 AA AA
598+  2254 AA AA
599+  2256 AA 00 AA 00  Char_L			db	170,0,170,0,170,0,170,0,255,170
599+  225A AA 00 AA 00
599+  225E FF AA
600+  2260 AA AA FF AA  Char_M			db	170,170,255,170,170,170,170,170,170,170
600+  2264 AA AA AA AA
600+  2268 AA AA
601+  226A FF AA AA AA  Char_N			db	255,170,170,170,170,170,170,170,170,170
601+  226E AA AA AA AA
601+  2272 AA AA
602+  2274 FF AA AA AA  Char_O			db	255,170,170,170,170,170,170,170,255,170
602+  2278 AA AA AA AA
602+  227C FF AA
603+  227E FF AA AA AA  Char_P			db	255,170,170,170,170,170,255,170,170,0
603+  2282 AA AA FF AA
603+  2286 AA 00
604+  2288 FF AA AA AA  Char_Q			db	255,170,170,170,170,170,255,170,0,170
604+  228C AA AA FF AA
604+  2290 00 AA
605+  2292 FF AA AA AA  Char_R			db	255,170,170,170,170,170,255,0,170,170
605+  2296 AA AA FF 00
605+  229A AA AA
606+  229C FF AA AA 00  Char_S			db	255,170,170,0,255,170,0,170,255,170
606+  22A0 FF AA 00 AA
606+  22A4 FF AA
607+  22A6 FF AA 55 00  Char_T			db	255,170,85,0,85,0,85,0,85,0
607+  22AA 55 00 55 00
607+  22AE 55 00
608+  22B0 AA AA AA AA  Char_U			db	170,170,170,170,170,170,170,170,255,170
608+  22B4 AA AA AA AA
608+  22B8 FF AA
609+  22BA AA AA AA AA  Char_V			db	170,170,170,170,170,170,170,170,255,0
609+  22BE AA AA AA AA
609+  22C2 FF 00
610+  22C4 AA AA AA AA  Char_W			db	170,170,170,170,170,170,255,170,170,170
610+  22C8 AA AA FF AA
610+  22CC AA AA
611+  22CE AA AA AA AA  Char_X			db	170,170,170,170,85,0,170,170,170,170
611+  22D2 55 00 AA AA
611+  22D6 AA AA
612+  22D8 AA AA AA AA  Char_Y			db	170,170,170,170,255,170,85,0,85,0
612+  22DC FF AA 55 00
612+  22E0 55 00
613+  22E2 FF AA 00 AA  Char_Z			db	255,170,0,170,255,170,170,0,255,170
613+  22E6 FF AA AA 00
613+  22EA FF AA
614+  22EC FF AA FF AA  Char_Squere		db	255,170,255,170,255,170,255,170,255,170
614+  22F0 FF AA FF AA
614+  22F4 FF AA
615+  22F6 00 00 00 00  Char_Space		db	0,0,0,0,0,0,0,0,0,0
615+  22FA 00 00 00 00
615+  22FE 00 00
616+  2300 00 00 55 00  Char_Plus		db	0,0,85,0,255,170,85,0,0,0
616+  2304 FF AA 55 00
616+  2308 00 00
617+  230A 00 00 00 00  Char_Dot		db	0,0,0,0,0,0,0,0,85,0
617+  230E 00 00 00 00
617+  2312 55 00
618+  2314 00 00 55 00  Char_DotDot		db	0,0,85,0,0,0,85,0,0,0
618+  2318 00 00 55 00
618+  231C 00 00
619+  231E AA 00 FF 00  Char_Arrow		db	170,0,255,0,255,170,255,0,170,0
619+  2322 FF AA FF 00
619+  2326 AA 00
620+  2328 55 00 55 00  Char_Exclamation        db	85,0,85,0,85,0,0,0,85,0
620+  232C 55 00 00 00
620+  2330 55 00
621+  2332 00 00 00 00  Char_Minus              db      0,0,0,0,255,0,0,0,0,0
621+  2336 FF 00 00 00
621+  233A 00 00
622+  233C              ;}
623+  233C
624+  233C
# file closed: chars.a80
882   233C                      include "tvcfunctions.a80"
# file opened: tvcfunctions.a80
  1+  233C                      ; **************************************
  2+  233C                      ; * Video mode configuration functions *
  3+  233C                      ; **************************************
  4+  233C
  5+  233C                      ;---------------------------------------------------------------------
  6+  233C                      ; Copies TVC program file from Cart ROM to RAM
  7+  233C                      ; Input:  HL - ROM address
  8+  233C                      ;         DE - RAM address
  9+  233C                      ;         BC - Number of bytes to copy
 10+  233C                      ; Output: HL - last byte address of ROM file
 11+  233C                      ;         DE - last address of the RAM
 12+  233C                      ; Destroys: HL, BC, DE, A, F
 13+  233C
 14+  233C              set_paging_U0_U1_VID_SYS:
 15+  233C 3E 50                ld	a, P_U0_U1_VID_SYS      ; Page in video memory to page 2.: U1, U2, VID, SYS
 16+  233E C3 50 23             jp      set_paging
 17+  2341
 18+  2341              set_paging_U0_U1_U2_SYS:
 19+  2341 3E 70                ld	a, P_U0_U1_U2_SYS	; Set paging to U0, U1, U2, SYS
 20+  2343 C3 50 23             jp      set_paging
 21+  2346
 22+  2346              set_paging_U0_U1_U2_U3:
 23+  2346 3E B0                ld	a, P_U0_U1_U2_U3        ; Set paging to U0, U1, U2, U3
 24+  2348 C3 50 23             jp      set_paging
 25+  234B
 26+  234B              set_paging_U0_U1_VID_U3:
 27+  234B 3E 90                ld	A,P_U0_U1_VID_U3
 28+  234D C3 50 23             jp      set_paging
 29+  2350
 30+  2350              set_paging:
 31+  2350 32 03 00     	ld	(P_SAVE), a
 32+  2353 D3 02        	out	(PAGE_REG), a
 33+  2355 C9                   ret
 34+  2356
 35+  2356                      ;---------------------------------------------------------------------
 36+  2356                      ; Changes the value of a BASIC string variable
 37+  2356                      ; Input:  HL - New string value (zero terminated)
 38+  2356                      ;         DE - Name of the variable
 39+  2356                      ;          C - Length of the variable name
 40+  2356              LETSTRINGVARIABLE:
 41+  2356 E5                   push    hl                      ; push string pointer
 42+  2357 2A 24 17             ld      hl,(CHAIN)              ; load symbol area address
 43+  235A
 44+  235A              SEARCH_FOR_SYMBOL:
 45+  235A E5                   push    hl                      ; save current symbol address
 46+  235B 23                   inc     hl                      ; skip next symbol address
 47+  235C 23                   inc     hl
 48+  235D 7E                   ld      a, (hl)                 ; load symbol name length
 49+  235E B9                   cp      a, c                    ; compare with length of the symbol to search
 50+  235F 20 2B                jr      nz, NEXT_SYMBOL         ; Length are different -> next symbol
 51+  2361 D5                   push    de                      ; save symbol name pointer
 52+  2362
 53+  2362                      ; compare symbol name
 54+  2362 47                   ld      b, a
 55+  2363 23                   inc     hl                      ; skip symbol length
 56+  2364
 57+  2364              COMPARE_SYMBOL:
 58+  2364 1A                   ld      a, (de)
 59+  2365 BE                   cp      (hl)
 60+  2366 20 20                jr      nz, SYMBOL_NAME_DIFFERENT
 61+  2368 23                   inc     hl
 62+  2369 13                   inc     de
 63+  236A 10 F8                djnz    COMPARE_SYMBOL
 64+  236C
 65+  236C                      ; symbol name found
 66+  236C 7E                   ld      a,(hl)                  ; load symbol type
 67+  236D FE 00                cp      a,0
 68+  236F 20 17                jr      nz, WRONG_SYMBOL_TYPE
 69+  2371
 70+  2371                      ; copy value string
 71+  2371 23                   inc     hl                      ; skip type
 72+  2372 23                   inc     hl                      ; skip allocated length
 73+  2373 EB                   ex      hl, de                  ; move destination to de
 74+  2374 E1                   pop     hl
 75+  2375 E1                   pop     hl
 76+  2376 E1                   pop     hl                      ; reload string pointer
 77+  2377
 78+  2377 D5                   push    de                      ; store length position
 79+  2378 13                   inc     de                      ; first character position
 80+  2379 06 00                ld      b, 0                    ; string length
 81+  237B
 82+  237B              CopyNextCharacter:
 83+  237B 7E                   ld      a, (hl)                 ; load character
 84+  237C B7                   or      a
 85+  237D 28 06                jr      z, StringEnd
 86+  237F 12                   ld      (de), a
 87+  2380 23                   inc     hl
 88+  2381 13                   inc     de
 89+  2382 04                   inc     b
 90+  2383 18 F6                jr      CopyNextCharacter
 91+  2385
 92+  2385              StringEnd:
 93+  2385 E1                   pop     hl
 94+  2386 70                   ld      (hl),  b                ; store length
 95+  2387
 96+  2387 C9                   ret
 97+  2388
 98+  2388              WRONG_SYMBOL_TYPE:
 99+  2388              SYMBOL_NAME_DIFFERENT:
100+  2388 D1                   pop     de                      ; reload symbol name pointer
101+  2389 E1                   pop     hl                      ; reload current address pointer
102+  238A E1                   pop     hl                      ; reload string pointer
103+  238B
104+  238B C9                   ret
105+  238C
106+  238C              NEXT_SYMBOL
107+  238C E1                   pop     hl                      ; reload current symbol address
108+  238D 7E                   ld      a, (hl)                 ; load next symbol address
109+  238E 23                   inc     hl
110+  238F 66                   ld      h, (hl)
111+  2390 6F                   ld      l, a
112+  2391 7C                   ld      a, h
113+  2392 FE C0                cp      a, $c0
114+  2394 38 C4                jr      c, SEARCH_FOR_SYMBOL
115+  2396
116+  2396                      ; symbol not found -> do nothing
117+  2396 E1                   pop     hl                      ; reload string pointer
118+  2397 C9                   ret
119+  2398
120+  2398                      ;---------------------------------------------------------------------
121+  2398                      ; Draws a horizontal line
122+  2398                      ; Input:  B - X
123+  2398                      ;         C - Y
124+  2398                      ;         A - Length
125+  2398              DrawHorizontalLine:
126+  2398 CD BC 20             call    PosToVidmemAddress
127+  239B
128+  239B 47                   ld      b, a
129+  239C 3A 53 20             ld      a, (CharBackgroundSave1+1)
130+  239F
131+  239F              DrawHorizontalLineL1:
132+  239F 77                   ld      (hl), a
133+  23A0 23                   inc     hl
134+  23A1 10 FC                djnz    DrawHorizontalLineL1
135+  23A3
136+  23A3 C9                   ret
137+  23A4
138+  23A4                      ; **************************************
139+  23A4                      ; * ZX7 decompression                  *
140+  23A4                      ; **************************************
141+  23A4
142+  23A4                      ; -----------------------------------------------------------------------------
143+  23A4                      ; ZX7 decoder by Einar Saukas & Urusergi
144+  23A4                      ; "Turbo" version (88 bytes, 25% faster)
145+  23A4                      ; -----------------------------------------------------------------------------
146+  23A4                      ; Parameters:
147+  23A4                      ;   HL: source address (compressed data)
148+  23A4                      ;   DE: destination address (decompressing)
149+  23A4                      ; -----------------------------------------------------------------------------
150+  23A4              dzx7_turbo:
151+  23A4 3E 80                ld	a,$80
152+  23A6
153+  23A6              dzx7t_copy_byte_loop:
154+  23A6 ED A0                ldi				; copy literal byte
155+  23A8
156+  23A8              dzx7t_main_loop:
157+  23A8 87                   add	a,a			; check next bit
158+  23A9 CC F8 23             call	z,dzx7t_load_bits	; no more bits left?
159+  23AC 30 F8                jr	nc,dzx7t_copy_byte_loop	; next bit indicates either literal or sequence
160+  23AE
161+  23AE                      ; determine number of bits used for length (Elias gamma coding)
162+  23AE D5                   push	de
163+  23AF 01 01 00             ld	bc,1
164+  23B2 50                   ld	d,b
165+  23B3
166+  23B3              dzx7t_len_size_loop:
167+  23B3 14                   inc	d
168+  23B4 87                   add	a,a			; check next bit
169+  23B5 CC F8 23             call	z,dzx7t_load_bits	; no more bits left?
170+  23B8 30 F9                jr	nc,dzx7t_len_size_loop
171+  23BA C3 C7 23             jp	dzx7t_len_value_START
172+  23BD
173+  23BD                      ; determine length
174+  23BD              dzx7t_len_value_loop:
175+  23BD 87                   add	a,a			; check next bit
176+  23BE CC F8 23             call	z,dzx7t_load_bits	; no more bits left?
177+  23C1 CB 11                rl	c
178+  23C3 CB 10                rl	b
179+  23C5 38 2D                jr	c,dzx7t_exit		; check end marker
180+  23C7
181+  23C7              dzx7t_len_value_START:
182+  23C7 15                   dec	d
183+  23C8 20 F3                jr	nz,dzx7t_len_value_loop
184+  23CA 03                   inc	bc			; adjust length
185+  23CB
186+  23CB                      ; determine offset
187+  23CB 5E                   ld	e,(hl)			; load offset flag (1 bit) + offset value (7 bits)
188+  23CC 23                   inc	hl
189+  23CD CB 33                sll	e			; opcode for undocumented instruction "SLL E" aka "SLS E"
190+  23CF 30 1A                jr	nc,dzx7t_offset_end	; if offset flag is set, load 4 extra bits
191+  23D1 87                   add	a,a			; check next bit
192+  23D2 CC F8 23             call	z,dzx7t_load_bits	; no more bits left?
193+  23D5 CB 12                rl	d			; insert first bit into D
194+  23D7 87                   add	a,a			; check next bit
195+  23D8 CC F8 23             call	z,dzx7t_load_bits	; no more bits left?
196+  23DB CB 12                rl	d			; insert second bit into D
197+  23DD 87                   add	a,a			; check next bit
198+  23DE CC F8 23             call	z,dzx7t_load_bits	; no more bits left?
199+  23E1 CB 12                rl	d			; insert third bit into D
200+  23E3 87                   add	a,a			; check next bit
201+  23E4 CC F8 23             call	z,dzx7t_load_bits	; no more bits left?
202+  23E7 3F                   ccf
203+  23E8 38 01                jr	c,dzx7t_offset_end
204+  23EA 14                   inc	d			; equivalent to adding 128 to DE
205+  23EB
206+  23EB              dzx7t_offset_end:
207+  23EB CB 1B                rr	e			; insert inverted fourth bit into E
208+  23ED
209+  23ED                      ; copy previous sequence
210+  23ED E3                   ex	(sp),hl			; store source, restore destination
211+  23EE E5                   push	hl			; store destination
212+  23EF ED 52                sbc	hl,de			; HL = destination - offset - 1
213+  23F1 D1                   pop	de			; DE = destination
214+  23F2 ED B0                ldir
215+  23F4              dzx7t_exit:
216+  23F4 E1                   pop	hl			; restore source address (compressed data)
217+  23F5 D2 A8 23             jp	nc,dzx7t_main_loop
218+  23F8
219+  23F8              dzx7t_load_bits:
220+  23F8 7E                   ld	a,(hl)			; load another group of 8 bits
221+  23F9 23                   inc	hl
222+  23FA 17                   rla
223+  23FB C9                   ret
224+  23FC
225+  23FC
226+  23FC 00           SAVED_MEM_PAGES  db     0
227+  23FD 00           SAVED_GRAPH_MODE db     0
228+  23FE
# file closed: tvcfunctions.a80
883   23FE                      include "gamesinfo.a80"
# file opened: gamesinfo.a80
  1+  23FE                      struct GamesInfo
  2+  23FE ~            Image   dw 0
  3+  23FE ~            Title   text 32, {0}
  4+  23FE ~            File    text 16, {0}
  5+  23FE                      ends
  6+  23FE
  7+  23FE                      struct GamesCollection
  8+  23FE ~            Count           byte 0
  9+  23FE ~            Index           byte 0
 10+  23FE ~            Year            text 7, {0}
 11+  23FE ~            YearDec         db 0
 12+  23FE ~            Collection      word
 13+  23FE                      ends
 14+  23FE
 15+  23FE              games_info2019:
 16+  23FE                      GamesInfo {
 17+  23FE CF 29                ikplus
 18+  2400                      ;|                               |
 19+  2400 44 4F 42 45          {"DOBERDO BROTHERS: INTERKARATE +"}
 19+  2404 52 44 4F 20
 19+  2408 42 52 4F 54
 19+  240C 48 45 52 53
 19+  2410 3A 20 49 4E
 19+  2414 54 45 52 4B
 19+  2418 41 52 41 54
 19+  241C 45 20 2B 00
 20+  2420 53 54 41 52          {"STARTIK.CAS"}
 20+  2424 54 49 4B 2E
 20+  2428 43 41 53 00
 20+  242C 00 00 00 00
 21+  2430                      }
 22+  2430                      GamesInfo {
 23+  2430 D9 2E                fuss
 24+  2432 20 20 20 20          {"        BERYSOFT: FUSS!        "}
 24+  2436 20 20 20 20
 24+  243A 42 45 52 59
 24+  243E 53 4F 46 54
 24+  2442 3A 20 46 55
 24+  2446 53 53 21 20
 24+  244A 20 20 20 20
 24+  244E 20 20 20 00
 25+  2452 46 55 53 53          {"FUSS.CAS"}
 25+  2456 2E 43 41 53
 25+  245A 00 00 00 00
 25+  245E 00 00 00 00
 26+  2462                      }
 27+  2462                      GamesInfo {
 28+  2462 3B 30                dkj
 29+  2464 4B 49 53 53          {"KISS KAROLY: DONKEY KONG JUNIOR"}
 29+  2468 20 4B 41 52
 29+  246C 4F 4C 59 3A
 29+  2470 20 44 4F 4E
 29+  2474 4B 45 59 20
 29+  2478 4B 4F 4E 47
 29+  247C 20 4A 55 4E
 29+  2480 49 4F 52 00
 30+  2484 44 4B 4A 52          {"DKJR.CAS"}
 30+  2488 2E 43 41 53
 30+  248C 00 00 00 00
 30+  2490 00 00 00 00
 31+  2494                      }
 32+  2494                      GamesInfo {
 33+  2494 F4 34                crossfire
 34+  2496 20 20 20 20          {"    KOLLAR ZOLTAN: CROSSFIRE   "}
 34+  249A 4B 4F 4C 4C
 34+  249E 41 52 20 5A
 34+  24A2 4F 4C 54 41
 34+  24A6 4E 3A 20 43
 34+  24AA 52 4F 53 53
 34+  24AE 46 49 52 45
 34+  24B2 20 20 20 00
 35+  24B6 43 52 4F 53          {"CROSSFIRE.CAS"}
 35+  24BA 53 46 49 52
 35+  24BE 45 2E 43 41
 35+  24C2 53 00 00 00
 36+  24C6                      }
 37+  24C6                      GamesInfo {
 38+  24C6 55 36                gombocfalo
 39+  24C8 20 20 20 20          {"      SZIPUCSU: GOMBOCFALO     "}
 39+  24CC 20 20 53 5A
 39+  24D0 49 50 55 43
 39+  24D4 53 55 3A 20
 39+  24D8 47 4F 4D 42
 39+  24DC 4F 43 46 41
 39+  24E0 4C 4F 20 20
 39+  24E4 20 20 20 00
 40+  24E8 47 4F 4D 45          {"GOMEX.CAS"}
 40+  24EC 58 2E 43 41
 40+  24F0 53 00 00 00
 40+  24F4 00 00 00 00
 41+  24F8                      }
 42+  24F8                      GamesInfo {
 43+  24F8 5F 37                filler
 44+  24FA 20 20 20 20          {"       G0BLINISH: FILLER       "}
 44+  24FE 20 20 20 47
 44+  2502 30 42 4C 49
 44+  2506 4E 49 53 48
 44+  250A 3A 20 46 49
 44+  250E 4C 4C 45 52
 44+  2512 20 20 20 20
 44+  2516 20 20 20 00
 45+  251A 46 49 4C 4C          {"FILLER.CAS"}
 45+  251E 45 52 2E 43
 45+  2522 41 53 00 00
 45+  2526 00 00 00 00
 46+  252A                      }
 47+  252A
 48+  252A
 49+  252A              games_info2020:
 50+  252A                      GamesInfo {
 51+  252A 27 38                puckman
 52+  252C                      ;|                               |
 53+  252C 20 20 20 44          {"   DOBERDO BROTHERS: PUCKMAN   "}
 53+  2530 4F 42 45 52
 53+  2534 44 4F 20 42
 53+  2538 52 4F 54 48
 53+  253C 45 52 53 3A
 53+  2540 20 50 55 43
 53+  2544 4B 4D 41 4E
 53+  2548 20 20 20 00
 54+  254C 53 54 41 52          {"STARTPAC.CAS"}
 54+  2550 54 50 41 43
 54+  2554 2E 43 41 53
 54+  2558 00 00 00 00
 55+  255C                      }
 56+  255C                      GamesInfo {
 57+  255C AD 3C                ikari
 58+  255E 20 20 50 45          {"  PERZSA NOEL: IKARI WARRIORS  "}
 58+  2562 52 5A 53 41
 58+  2566 20 4E 4F 45
 58+  256A 4C 3A 20 49
 58+  256E 4B 41 52 49
 58+  2572 20 57 41 52
 58+  2576 52 49 4F 52
 58+  257A 53 20 20 00
 59+  257E 49 4B 41 52          {"IKARI.CAS"}
 59+  2582 49 2E 43 41
 59+  2586 53 00 00 00
 59+  258A 00 00 00 00
 60+  258E                      }
 61+  258E                      GamesInfo {
 62+  258E FB 45                renagade
 63+  2590 20 20 20 20          {"     PERZSA NOEL: RENEGADE     "}
 63+  2594 20 50 45 52
 63+  2598 5A 53 41 20
 63+  259C 4E 4F 45 4C
 63+  25A0 3A 20 52 45
 63+  25A4 4E 45 47 41
 63+  25A8 44 45 20 20
 63+  25AC 20 20 20 00
 64+  25B0 52 45 4E 45          {"RENEGADE.CAS"}
 64+  25B4 47 41 44 45
 64+  25B8 2E 43 41 53
 64+  25BC 00 00 00 00
 65+  25C0                      }
 66+  25C0                      GamesInfo {
 67+  25C0 A6 49                quadrillion
 68+  25C2 20 20 20 20          {"    PERZSA NOEL: QUADRILLION   "}
 68+  25C6 50 45 52 5A
 68+  25CA 53 41 20 4E
 68+  25CE 4F 45 4C 3A
 68+  25D2 20 51 55 41
 68+  25D6 44 52 49 4C
 68+  25DA 4C 49 4F 4E
 68+  25DE 20 20 20 00
 69+  25E2 51 55 41 44          {"QUADR.CAS"}
 69+  25E6 52 2E 43 41
 69+  25EA 53 00 00 00
 69+  25EE 00 00 00 00
 70+  25F2                      }
 71+  25F2                      GamesInfo {
 72+  25F2 47 4B                vote
 73+  25F4 20 20 20 20          {"     KISS KAROLY: VOTE2020     "}
 73+  25F8 20 4B 49 53
 73+  25FC 53 20 4B 41
 73+  2600 52 4F 4C 59
 73+  2604 3A 20 56 4F
 73+  2608 54 45 32 30
 73+  260C 32 30 20 20
 73+  2610 20 20 20 00
 74+  2614 56 4F 54 45          {"VOTE.CAS"}
 74+  2618 2E 43 41 53
 74+  261C 00 00 00 00
 74+  2620 00 00 00 00
 75+  2624                      }
 76+  2624                      GamesInfo {
 77+  2624 B0 4E                xorgame
 78+  2626 20 20 20 20          {"      SZIPUCSU: XORGAME 2      "}
 78+  262A 20 20 53 5A
 78+  262E 49 50 55 43
 78+  2632 53 55 3A 20
 78+  2636 58 4F 52 47
 78+  263A 41 4D 45 20
 78+  263E 32 20 20 20
 78+  2642 20 20 20 00
 79+  2646 58 4F 52 47          {"XORGAME.CAS"}
 79+  264A 41 4D 45 2E
 79+  264E 43 41 53 00
 79+  2652 00 00 00 00
 80+  2656                      }
 81+  2656                      GamesInfo {
 82+  2656 34 4F                bomber
 83+  2658 20 20 20 20          {"     SZIPUCSU: BOMBER 2IN1     "}
 83+  265C 20 53 5A 49
 83+  2660 50 55 43 53
 83+  2664 55 3A 20 42
 83+  2668 4F 4D 42 45
 83+  266C 52 20 32 49
 83+  2670 4E 31 20 20
 83+  2674 20 20 20 00
 84+  2678 42 4F 4D 42          {"BOMBER2.CAS"}
 84+  267C 45 52 32 2E
 84+  2680 43 41 53 00
 84+  2684 00 00 00 00
 85+  2688                      }
 86+  2688                      GamesInfo {
 87+  2688 01 51                multitetris
 88+  268A 20 20 20 42          {"   BANA G. PETER: MULTITETRIS  "}
 88+  268E 41 4E 41 20
 88+  2692 47 2E 20 50
 88+  2696 45 54 45 52
 88+  269A 3A 20 4D 55
 88+  269E 4C 54 49 54
 88+  26A2 45 54 52 49
 88+  26A6 53 20 20 00
 89+  26AA 4D 55 4C 54          {"MULTITET.CAS"}
 89+  26AE 49 54 45 54
 89+  26B2 2E 43 41 53
 89+  26B6 00 00 00 00
 90+  26BA                      }
 91+  26BA
 92+  26BA              games_info2021:
 93+  26BA                      GamesInfo {
 94+  26BA 0B 52                im
 95+  26BC                      ;|                               |
 96+  26BC 44 4F 42 45          {"DOBERDO BROTHERS: IMPOSSIBLE M."}
 96+  26C0 52 44 4F 20
 96+  26C4 42 52 4F 54
 96+  26C8 48 45 52 53
 96+  26CC 3A 20 49 4D
 96+  26D0 50 4F 53 53
 96+  26D4 49 42 4C 45
 96+  26D8 20 4D 2E 00
 97+  26DC 53 54 41 52          {"STARTIM.CAS"}
 97+  26E0 54 49 4D 2E
 97+  26E4 43 41 53 00
 97+  26E8 00 00 00 00
 98+  26EC                      }
 99+  26EC                      GamesInfo {
100+  26EC DA 55                bomberman
101+  26EE 20 20 20 20          {"      BERYSOFT: BOMBERMAN      "}
101+  26F2 20 20 42 45
101+  26F6 52 59 53 4F
101+  26FA 46 54 3A 20
101+  26FE 42 4F 4D 42
101+  2702 45 52 4D 41
101+  2706 4E 20 20 20
101+  270A 20 20 20 00
102+  270E 42 4F 4D 42          {"BOMBER.CAS"}
102+  2712 45 52 2E 43
102+  2716 41 53 00 00
102+  271A 00 00 00 00
103+  271E                      }
104+  271E                      GamesInfo {
105+  271E 21 5A                nebulus
106+  2720 20 20 20 20          {"     PERZSA NOEL: NEBULUS      "}
106+  2724 20 50 45 52
106+  2728 5A 53 41 20
106+  272C 4E 4F 45 4C
106+  2730 3A 20 4E 45
106+  2734 42 55 4C 55
106+  2738 53 20 20 20
106+  273C 20 20 20 00
107+  2740 4E 45 42 55          {"NEBULUS.CAS"}
107+  2744 4C 55 53 2E
107+  2748 43 41 53 00
107+  274C 00 00 00 00
108+  2750                      }
109+  2750                      GamesInfo {
110+  2750 72 5F                lode_runner
111+  2752 4B 4F 4C 4C          {"KOLLAR Z. PERZSA N. LODE RUNNER"}
111+  2756 41 52 20 5A
111+  275A 2E 20 50 45
111+  275E 52 5A 53 41
111+  2762 20 4E 2E 20
111+  2766 4C 4F 44 45
111+  276A 20 52 55 4E
111+  276E 4E 45 52 00
112+  2772 54 4C 2E 43          {"TL.CAS"}
112+  2776 41 53 00 00
112+  277A 00 00 00 00
112+  277E 00 00 00 00
113+  2782                      }
114+  2782                      GamesInfo {
115+  2782 D5 77                raster_runner
116+  2784 20 20 20 50          {"   PERZSA NOEL: RASTER RUNNER  "}
116+  2788 45 52 5A 53
116+  278C 41 20 4E 4F
116+  2790 45 4C 3A 20
116+  2794 52 41 53 54
116+  2798 45 52 20 52
116+  279C 55 4E 4E 45
116+  27A0 52 20 20 00
117+  27A4 52 41 53 54          {"RASTER.CAS"}
117+  27A8 45 52 2E 43
117+  27AC 41 53 00 00
117+  27B0 00 00 00 00
118+  27B4                      }
119+  27B4                      GamesInfo {
120+  27B4 F5 68                gunfright
121+  27B6 20 20 20 20          {"     PERZSA NOEL: GUNFRIGHT    "}
121+  27BA 20 50 45 52
121+  27BE 5A 53 41 20
121+  27C2 4E 4F 45 4C
121+  27C6 3A 20 47 55
121+  27CA 4E 46 52 49
121+  27CE 47 48 54 20
121+  27D2 20 20 20 00
122+  27D6 47 55 4E 46          {"GUNFRIGH.CAS"}
122+  27DA 52 49 47 48
122+  27DE 2E 43 41 53
122+  27E2 00 00 00 00
123+  27E6                      }
124+  27E6                      GamesInfo {
125+  27E6 2A 71                mp_soccer
126+  27E8 50 45 52 5A          {"PERZSA NOEL: MICROPROSE SOCCER "}
126+  27EC 53 41 20 4E
126+  27F0 4F 45 4C 3A
126+  27F4 20 4D 49 43
126+  27F8 52 4F 50 52
126+  27FC 4F 53 45 20
126+  2800 53 4F 43 43
126+  2804 45 52 20 00
127+  2808 4D 50 53 4F          {"MPSOCCER.CAS"}
127+  280C 43 43 45 52
127+  2810 2E 43 41 53
127+  2814 00 00 00 00
128+  2818                      }
129+  2818                      GamesInfo {
130+  2818 1C 7E                sotet_kastely
131+  281A 20 20 4F 52          {"  OROSZ OLIVER: SOTET KASTELY  "}
131+  281E 4F 53 5A 20
131+  2822 4F 4C 49 56
131+  2826 45 52 3A 20
131+  282A 53 4F 54 45
131+  282E 54 20 4B 41
131+  2832 53 54 45 4C
131+  2836 59 20 20 00
132+  283A 53 4F 54 45          {"SOTETKAS.CAS"}
132+  283E 54 4B 41 53
132+  2842 2E 43 41 53
132+  2846 00 00 00 00
133+  284A                      }
134+  284A                      GamesInfo {
135+  284A 68 7D                red_october
136+  284C 48 50 3A 20          {"HP: VADASZAT A VOROS OKTOBERREL"}
136+  2850 56 41 44 41
136+  2854 53 5A 41 54
136+  2858 20 41 20 56
136+  285C 4F 52 4F 53
136+  2860 20 4F 4B 54
136+  2864 4F 42 45 52
136+  2868 52 45 4C 00
137+  286C 56 4F 52 4F          {"VOROSOKT.CAS"}
137+  2870 53 4F 4B 54
137+  2874 2E 43 41 53
137+  2878 00 00 00 00
138+  287C                      }
139+  287C
140+  287C
141+  287C              GAMES_COLLECTION:
142+  287C                      GamesCollection {
143+  287C 06                   6
144+  287D 00                   0
145+  287E 20 32 30 31          { " 2019 "}
145+  2882 39 20 00
146+  2885 BF                   191
147+  2886 FE 23                games_info2019
148+  2888                      }
149+  2888                      GamesCollection {
150+  2888 08                   8
151+  2889 00                   0
152+  288A 20 32 30 32          { " 2020 "}
152+  288E 30 20 00
153+  2891 C9                   201
154+  2892 2A 25                games_info2020
155+  2894                      }
156+  2894                      GamesCollection {
157+  2894 09                   9
158+  2895 00                   0
159+  2896 20 32 30 32          { " 2021 "}
159+  289A 31 20 00
160+  289D D3                   211
161+  289E BA 26                games_info2021
162+  28A0                      }
163+  28A0                      GamesCollection {
164+  28A0 00                   0
165+  28A1 00                   0
166+  28A2 00 00 00 00          }
166+  28A6 00 00 00 00
166+  28AA 00 00
167+  28AC
# file closed: gamesinfo.a80
884   28AC
885   28AC                      include "resources.a80"
# file opened: resources.a80
  1+  28AC              megaplex
  2+  28AC 40                                   db	64			; A sprite szélessége byte-okban
  3+  28AD F0                                   db	240			; A sprite magassága
  4+  28AE FF 94 00 AB                          db	255,148,0,171,3,163,4,3,87,6,250,0,5,9,187,14,16,186,4,0,154,10,94,30,5,107,47,0,133,62,63,6
  4+  28B2 03 A3 04 03
  4+  28B6 57 06 FA 00
  4+  28BA 05 09 BB 0E
  4+  28BE 10 BA 04 00
  4+  28C2 9A 0A 5E 1E
  4+  28C6 05 6B 2F 00
  4+  28CA 85 3E 3F 06
  5+  28CE 04 31 3F 57                          db	4,49,63,87,5,183,63,5,5,247,63,117,29,63,83,13,35,63,3,110,63,33,22,63,231,10,114,158,63,231,45,63
  5+  28D2 05 B7 3F 05
  5+  28D6 05 F7 3F 75
  5+  28DA 1D 3F 53 0D
  5+  28DE 23 3F 03 6E
  5+  28E2 3F 21 16 3F
  5+  28E6 E7 0A 72 9E
  5+  28EA 3F E7 2D 3F
  6+  28EE 9C 96 6E 02                          db	156,150,110,2,25,63,184,8,196,63,171,17,84,63,34,79,63,3,2,29,63,132,197,40,63,3,65,171,42,63,87,21
  6+  28F2 19 3F B8 08
  6+  28F6 C4 3F AB 11
  6+  28FA 54 3F 22 4F
  6+  28FE 3F 03 02 1D
  6+  2902 3F 84 C5 28
  6+  2906 3F 03 41 AB
  6+  290A 2A 3F 57 15
  7+  290E 3F EE 06 08                          db	63,238,6,8,62,63,114,154,158,38,2,109,63,3,12,84,63,4,77,38,198,2,220,63,30,17,205,63,6,50,63,3
  7+  2912 3E 3F 72 9A
  7+  2916 9E 26 02 6D
  7+  291A 3F 03 0C 54
  7+  291E 3F 04 4D 26
  7+  2922 C6 02 DC 3F
  7+  2926 1E 11 CD 3F
  7+  292A 06 32 3F 03
  8+  292E 36 3F E3 1D                          db	54,63,227,29,236,63,146,161,110,63,0,6,171,63,12,158,63,231,56,140,88,124,191,126,16,1,56,191,224,253,63,3
  8+  2932 EC 3F 92 A1
  8+  2936 6E 3F 00 06
  8+  293A AB 3F 0C 9E
  8+  293E 3F E7 38 8C
  8+  2942 58 7C BF 7E
  8+  2946 10 01 38 BF
  8+  294A E0 FD 3F 03
  9+  294E 16 CC D0 F9                          db	22,204,208,249,255,67,87,63,57,4,72,63,255,20,42,63,50,120,63,125,255,96,183,63,11,135,146,63,87,220,2,106
  9+  2952 FF 43 57 3F
  9+  2956 39 04 48 3F
  9+  295A FF 14 2A 3F
  9+  295E 32 78 3F 7D
  9+  2962 FF 60 B7 3F
  9+  2966 0B 87 92 3F
  9+  296A 57 DC 02 6A
 10+  296E 19 58 3F F9                          db	25,88,63,249,65,188,63,73,178,92,18,235,185,60,82,124,255,193,180,63,18,92,255,29,88,63,158,65,108,63,0,67
 10+  2972 41 BC 3F 49
 10+  2976 B2 5C 12 EB
 10+  297A B9 3C 52 7C
 10+  297E FF C1 B4 3F
 10+  2982 12 5C FF 1D
 10+  2986 58 3F 9E 41
 10+  298A 6C 3F 00 43
 11+  298E C2 00 C0 00                          db	194,0,192,0,143,200,0,127,191,61,3,210,130,1,253,3,131,243,191,128,254,0,70,3,8,0,66,129,3,122,0,62
 11+  2992 8F C8 00 7F
 11+  2996 BF 3D 03 D2
 11+  299A 82 01 FD 03
 11+  299E 83 F3 BF 80
 11+  29A2 FE 00 46 03
 11+  29A6 08 00 42 81
 11+  29AA 03 7A 00 3E
 12+  29AE 21 00 1E BF                          db	33,0,30,191,63,64,192,127,144,0,127,191,122,3,255,64,255,63,176,3,126,191,112,4,124,0,255,128,111,160,0,0
 12+  29B2 3F 40 C0 7F
 12+  29B6 90 00 7F BF
 12+  29BA 7A 03 FF 40
 12+  29BE FF 3F B0 03
 12+  29C2 7E BF 70 04
 12+  29C6 7C 00 FF 80
 12+  29CA 6F A0 00 00
 13+  29CE 10                                   db	16
 14+  29CF              ikplus
 15+  29CF 20                                   db	32			; A sprite szélessége byte-okban
 16+  29D0 78                                   db	120			; A sprite magassága
 17+  29D1 0C 86 57 00                          db	12,134,87,0,92,0,73,7,252,70,14,192,252,172,4,72,93,132,16,235,10,0,172,0,29,12,204,252,0,255,19,20
 17+  29D5 5C 00 49 07
 17+  29D9 FC 46 0E C0
 17+  29DD FC AC 04 48
 17+  29E1 5D 84 10 EB
 17+  29E5 0A 00 AC 00
 17+  29E9 1D 0C CC FC
 17+  29ED 00 FF 13 14
 18+  29F1 00 06 29 03                          db	0,6,41,3,192,92,203,32,62,139,63,76,204,140,29,184,31,148,0,12,232,62,172,153,110,9,24,132,72,231,31,63
 18+  29F5 C0 5C CB 20
 18+  29F9 3E 8B 3F 4C
 18+  29FD CC 8C 1D B8
 18+  2A01 1F 94 00 0C
 18+  2A05 E8 3E AC 99
 18+  2A09 6E 09 18 84
 18+  2A0D 48 E7 1F 3F
 19+  2A11 8D 1F 24 C4                          db	141,31,36,196,200,6,185,115,231,63,160,8,238,95,58,127,63,43,37,187,34,187,11,26,184,7,164,127,252,203,0,172
 19+  2A15 C8 06 B9 73
 19+  2A19 E7 3F A0 08
 19+  2A1D EE 5F 3A 7F
 19+  2A21 3F 2B 25 BB
 19+  2A25 22 BB 0B 1A
 19+  2A29 B8 07 A4 7F
 19+  2A2D FC CB 00 AC
 20+  2A31 17 97 03 B3                          db	23,151,3,179,1,204,12,220,36,62,137,90,204,74,0,200,132,3,101,196,3,72,196,203,13,62,232,52,80,204,81,31
 20+  2A35 01 CC 0C DC
 20+  2A39 24 3E 89 5A
 20+  2A3D CC 4A 00 C8
 20+  2A41 84 03 65 C4
 20+  2A45 03 48 C4 CB
 20+  2A49 0D 3E E8 34
 20+  2A4D 50 CC 51 1F
 21+  2A51 DC E5 00 3E                          db	220,229,0,62,234,192,132,207,40,31,204,40,236,236,26,212,232,148,176,39,31,231,9,31,150,23,230,63,0,186,31,253
 21+  2A55 EA C0 84 CF
 21+  2A59 28 1F CC 28
 21+  2A5D EC EC 1A D4
 21+  2A61 E8 94 B0 27
 21+  2A65 1F E7 09 1F
 21+  2A69 96 17 E6 3F
 21+  2A6D 00 BA 1F FD
 22+  2A71 05 C4 CF 1F                          db	5,196,207,31,19,240,63,31,236,0,118,31,223,48,233,31,76,140,26,15,212,140,182,43,157,8,212,15,232,118,31,159
 22+  2A75 13 F0 3F 1F
 22+  2A79 EC 00 76 1F
 22+  2A7D DF 30 E9 1F
 22+  2A81 4C 8C 1A 0F
 22+  2A85 D4 8C B6 2B
 22+  2A89 9D 08 D4 0F
 22+  2A8D E8 76 1F 9F
 23+  2A91 51 AC 0F 5C                          db	81,172,15,92,200,97,58,102,136,9,73,167,172,217,80,153,117,14,5,36,8,77,9,227,8,193,27,31,101,191,23,31
 23+  2A95 C8 61 3A 66
 23+  2A99 88 09 49 A7
 23+  2A9D AC D9 50 99
 23+  2AA1 75 0E 05 24
 23+  2AA5 08 4D 09 E3
 23+  2AA9 08 C1 1B 1F
 23+  2AAD 65 BF 17 1F
 24+  2AB1 8C FF 84 BA                          db	140,255,132,186,232,231,12,227,20,196,210,8,229,31,131,113,11,54,31,191,51,150,31,212,236,196,83,125,22,31,44,242
 24+  2AB5 E8 E7 0C E3
 24+  2AB9 14 C4 D2 08
 24+  2ABD E5 1F 83 71
 24+  2AC1 0B 36 1F BF
 24+  2AC5 33 96 1F D4
 24+  2AC9 EC C4 53 7D
 24+  2ACD 16 1F 2C F2
 25+  2AD1 08 02 5D 1F                          db	8,2,93,31,95,247,8,63,23,114,31,72,103,252,23,29,203,10,31,220,64,11,148,63,135,181,60,133,255,92,66,41
 25+  2AD5 5F F7 08 3F
 25+  2AD9 17 72 1F 48
 25+  2ADD 67 FC 17 1D
 25+  2AE1 CB 0A 1F DC
 25+  2AE5 40 0B 94 3F
 25+  2AE9 87 B5 3C 85
 25+  2AED FF 5C 42 29
 26+  2AF1 44 3F 60 9F                          db	68,63,96,159,73,63,115,17,170,63,236,3,42,31,121,127,44,63,249,251,63,53,180,95,192,88,191,45,192,31,192,124
 26+  2AF5 49 3F 73 11
 26+  2AF9 AA 3F EC 03
 26+  2AFD 2A 1F 79 7F
 26+  2B01 2C 3F F9 FB
 26+  2B05 3F 35 B4 5F
 26+  2B09 C0 58 BF 2D
 26+  2B0D C0 1F C0 7C
 27+  2B11 67 22 E5 92                          db	103,34,229,146,55,96,3,25,17,195,67,103,157,97,220,13,157,159,195,31,101,223,97,243,13,243,95,29,53,153,69,86
 27+  2B15 37 60 03 19
 27+  2B19 11 C3 43 67
 27+  2B1D 9D 61 DC 0D
 27+  2B21 9D 9F C3 1F
 27+  2B25 65 DF 61 F3
 27+  2B29 0D F3 5F 1D
 27+  2B2D 35 99 45 56
 28+  2B31 95 BF 4D 68                          db	149,191,77,104,93,235,3,227,252,29,14,18,89,191,117,26,18,37,17,138,171,12,198,159,33,230,111,20,12,187,50,166
 28+  2B35 5D EB 03 E3
 28+  2B39 FC 1D 0E 12
 28+  2B3D 59 BF 75 1A
 28+  2B41 12 25 11 8A
 28+  2B45 AB 0C C6 9F
 28+  2B49 21 E6 6F 14
 28+  2B4D 0C BB 32 A6
 29+  2B51 69 2C 20 9F                          db	105,44,32,159,98,251,30,0,31,146,9,32,223,163,172,0,255,120,30,249,31,251,48,7,31,158,0,229,31,24,114,220
 29+  2B55 62 FB 1E 00
 29+  2B59 1F 92 09 20
 29+  2B5D DF A3 AC 00
 29+  2B61 FF 78 1E F9
 29+  2B65 1F FB 30 07
 29+  2B69 1F 9E 00 E5
 29+  2B6D 1F 18 72 DC
 30+  2B71 06 94 B1 4A                          db	6,148,177,74,31,200,110,63,18,121,31,231,95,210,62,255,19,72,89,95,171,212,14,74,159,89,219,196,21,255,202,14
 30+  2B75 1F C8 6E 3F
 30+  2B79 12 79 1F E7
 30+  2B7D 5F D2 3E FF
 30+  2B81 13 48 59 5F
 30+  2B85 AB D4 0E 4A
 30+  2B89 9F 59 DB C4
 30+  2B8D 15 FF CA 0E
 31+  2B91 06 4C 91 9F                          db	6,76,145,159,36,157,15,59,14,185,31,98,227,251,31,63,211,137,214,146,126,127,43,113,173,158,127,97,201,69,72,172
 31+  2B95 24 9D 0F 3B
 31+  2B99 0E B9 1F 62
 31+  2B9D E3 FB 1F 3F
 31+  2BA1 D3 89 D6 92
 31+  2BA5 7E 7F 2B 71
 31+  2BA9 AD 9E 7F 61
 31+  2BAD C9 45 48 AC
 32+  2BB1 BF D1 5F 32                          db	191,209,95,50,18,165,144,205,127,0,27,63,41,147,196,174,63,92,203,98,103,127,165,63,12,127,141,31,146,50,41,228
 32+  2BB5 12 A5 90 CD
 32+  2BB9 7F 00 1B 3F
 32+  2BBD 29 93 C4 AE
 32+  2BC1 3F 5C CB 62
 32+  2BC5 67 7F A5 3F
 32+  2BC9 0C 7F 8D 1F
 32+  2BCD 92 32 29 E4
 33+  2BD1 E7 BF 6B AB                          db	231,191,107,171,185,227,31,14,247,62,252,237,135,32,174,31,31,247,132,3,184,0,210,77,8,17,31,106,12,66,31,99
 33+  2BD5 B9 E3 1F 0E
 33+  2BD9 F7 3E FC ED
 33+  2BDD 87 20 AE 1F
 33+  2BE1 1F F7 84 03
 33+  2BE5 B8 00 D2 4D
 33+  2BE9 08 11 1F 6A
 33+  2BED 0C 42 1F 63
 34+  2BF1 13 01 A9 03                          db	19,1,169,3,70,159,1,137,86,35,243,16,12,163,31,3,2,63,6,220,236,9,119,63,129,26,58,0,98,123,31,63
 34+  2BF5 46 9F 01 89
 34+  2BF9 56 23 F3 10
 34+  2BFD 0C A3 1F 03
 34+  2C01 02 3F 06 DC
 34+  2C05 EC 09 77 3F
 34+  2C09 81 1A 3A 00
 34+  2C0D 62 7B 1F 3F
 35+  2C11 89 5F BB 59                          db	137,95,187,89,6,230,5,31,63,35,86,31,100,93,137,127,215,68,66,37,58,63,76,134,191,54,95,33,31,118,116,21
 35+  2C15 06 E6 05 1F
 35+  2C19 3F 23 56 1F
 35+  2C1D 64 5D 89 7F
 35+  2C21 D7 44 42 25
 35+  2C25 3A 3F 4C 86
 35+  2C29 BF 36 5F 21
 35+  2C2D 1F 76 74 15
 36+  2C31 DF 68 CC 8A                          db	223,104,204,138,31,167,11,31,34,6,12,82,63,92,208,63,194,93,63,248,56,3,171,162,9,45,31,159,34,100,95,63
 36+  2C35 1F A7 0B 1F
 36+  2C39 22 06 0C 52
 36+  2C3D 3F 5C D0 3F
 36+  2C41 C2 5D 3F F8
 36+  2C45 38 03 AB A2
 36+  2C49 09 2D 1F 9F
 36+  2C4D 22 64 5F 3F
 37+  2C51 F8 3E 1F 5A                          db	248,62,31,90,127,98,31,92,169,45,63,204,22,31,252,178,31,232,129,25,95,81,232,31,252,212,58,31,6,209,159,9
 37+  2C55 7F 62 1F 5C
 37+  2C59 A9 2D 3F CC
 37+  2C5D 16 1F FC B2
 37+  2C61 1F E8 81 19
 37+  2C65 5F 51 E8 1F
 37+  2C69 FC D4 3A 1F
 37+  2C6D 06 D1 9F 09
 38+  2C71 12 1F 56 55                          db	18,31,86,85,212,31,108,228,235,31,70,31,69,137,119,31,58,31,63,127,11,115,127,119,63,117,127,100,31,252,129,37
 38+  2C75 D4 1F 6C E4
 38+  2C79 EB 1F 46 1F
 38+  2C7D 45 89 77 1F
 38+  2C81 3A 1F 3F 7F
 38+  2C85 0B 73 7F 77
 38+  2C89 3F 75 7F 64
 38+  2C8D 1F FC 81 25
 39+  2C91 3F DE 15 1F                          db	63,222,21,31,195,182,9,169,132,170,127,21,110,31,17,32,191,117,247,160,191,156,63,252,19,145,27,255,174,3,171,31
 39+  2C95 C3 B6 09 A9
 39+  2C99 84 AA 7F 15
 39+  2C9D 6E 1F 11 20
 39+  2CA1 BF 75 F7 A0
 39+  2CA5 BF 9C 3F FC
 39+  2CA9 13 91 1B FF
 39+  2CAD AE 03 AB 1F
 40+  2CB1 EA 2E 7E A7                          db	234,46,126,167,32,31,48,185,51,31,185,87,255,254,41,252,255,31,86,25,136,180,159,22,31,51,30,192,51,255,0,31
 40+  2CB5 20 1F 30 B9
 40+  2CB9 33 1F B9 57
 40+  2CBD FF FE 29 FC
 40+  2CC1 FF 1F 56 19
 40+  2CC5 88 B4 9F 16
 40+  2CC9 1F 33 1E C0
 40+  2CCD 33 FF 00 1F
 41+  2CD1 EA F8 1F 69                          db	234,248,31,105,180,189,233,32,223,186,30,32,191,31,2,31,209,79,63,75,0,12,191,75,31,182,63,254,2,234,214,223
 41+  2CD5 B4 BD E9 20
 41+  2CD9 DF BA 1E 20
 41+  2CDD BF 1F 02 1F
 41+  2CE1 D1 4F 3F 4B
 41+  2CE5 00 0C BF 4B
 41+  2CE9 1F B6 3F FE
 41+  2CED 02 EA D6 DF
 42+  2CF1 33 1F 20 D1                          db	51,31,32,209,31,145,65,31,255,213,252,189,24,31,63,164,63,19,86,31,100,149,143,31,113,132,65,68,31,234,63,123
 42+  2CF5 1F 91 41 1F
 42+  2CF9 FF D5 FC BD
 42+  2CFD 18 1F 3F A4
 42+  2D01 3F 13 56 1F
 42+  2D05 64 95 8F 1F
 42+  2D09 71 84 41 44
 42+  2D0D 1F EA 3F 7B
 43+  2D11 1F 95 A6 0A                          db	31,149,166,10,32,210,89,255,194,0,58,31,4,106,245,31,63,253,33,4,191,55,31,63,64,208,88,192,252,3,62,38
 43+  2D15 20 D2 59 FF
 43+  2D19 C2 00 3A 1F
 43+  2D1D 04 6A F5 1F
 43+  2D21 3F FD 21 04
 43+  2D25 BF 37 1F 3F
 43+  2D29 40 D0 58 C0
 43+  2D2D FC 03 3E 26
 44+  2D31 1F 7E 51 62                          db	31,126,81,98,31,254,232,144,31,213,234,169,31,51,145,65,185,92,63,12,97,28,46,12,202,122,31,51,183,31,253,31
 44+  2D35 1F FE E8 90
 44+  2D39 1F D5 EA A9
 44+  2D3D 1F 33 91 41
 44+  2D41 B9 5C 3F 0C
 44+  2D45 61 1C 2E 0C
 44+  2D49 CA 7A 1F 33
 44+  2D4D B7 1F FD 1F
 45+  2D51 1B 3C 81 B9                          db	27,60,129,185,29,63,61,31,132,192,120,156,81,129,74,8,187,35,51,127,194,187,51,31,58,238,2,122,56,0,92,172
 45+  2D55 1D 3F 3D 1F
 45+  2D59 84 C0 78 9C
 45+  2D5D 51 81 4A 08
 45+  2D61 BB 23 33 7F
 45+  2D65 C2 BB 33 1F
 45+  2D69 3A EE 02 7A
 45+  2D6D 38 00 5C AC
 46+  2D71 94 1F 3B BB                          db	148,31,59,187,97,119,136,81,34,248,64,209,75,31,180,92,51,3,191,36,31,212,148,96,127,119,247,31,28,255,38,26
 46+  2D75 61 77 88 51
 46+  2D79 22 F8 40 D1
 46+  2D7D 4B 1F B4 5C
 46+  2D81 33 03 BF 24
 46+  2D85 1F D4 94 60
 46+  2D89 7F 77 F7 1F
 46+  2D8D 1C FF 26 1A
 47+  2D91 1E 6A CE 8C                          db	30,106,206,140,195,193,0,79,119,31,26,64,132,234,127,229,82,149,33,31,127,22,31,106,156,119,133,90,64,59,33,31
 47+  2D95 C3 C1 00 4F
 47+  2D99 77 1F 1A 40
 47+  2D9D 84 EA 7F E5
 47+  2DA1 52 95 21 1F
 47+  2DA5 7F 16 1F 6A
 47+  2DA9 9C 77 85 5A
 47+  2DAD 40 3B 21 1F
 48+  2DB1 FF 1A 1F 5C                          db	255,26,31,92,181,31,72,72,31,255,81,245,31,235,61,96,38,4,63,191,59,0,143,31,228,61,31,78,145,31,191,140
 48+  2DB5 B5 1F 48 48
 48+  2DB9 1F FF 51 F5
 48+  2DBD 1F EB 3D 60
 48+  2DC1 26 04 3F BF
 48+  2DC5 3B 00 8F 1F
 48+  2DC9 E4 3D 1F 4E
 48+  2DCD 91 1F BF 8C
 49+  2DD1 BD 14 84 89                          db	189,20,132,137,31,149,176,31,230,140,31,238,126,31,185,252,25,229,31,255,104,26,106,239,31,59,2,237,35,31,55,60
 49+  2DD5 1F 95 B0 1F
 49+  2DD9 E6 8C 1F EE
 49+  2DDD 7E 1F B9 FC
 49+  2DE1 19 E5 1F FF
 49+  2DE5 68 1A 6A EF
 49+  2DE9 1F 3B 02 ED
 49+  2DED 23 1F 37 3C
 50+  2DF1 1F 50 80 2E                          db	31,80,128,46,72,31,178,147,68,31,59,148,25,226,81,52,125,31,132,157,31,149,31,31,218,30,31,72,239,97,31,15
 50+  2DF5 48 1F B2 93
 50+  2DF9 44 1F 3B 94
 50+  2DFD 19 E2 51 34
 50+  2E01 7D 1F 84 9D
 50+  2E05 1F 95 1F 1F
 50+  2E09 DA 1E 1F 48
 50+  2E0D EF 61 1F 0F
 51+  2E11 B8 79 A0 80                          db	184,121,160,128,182,156,9,212,132,93,234,81,31,98,242,31,224,195,172,255,93,160,129,36,72,145,63,152,232,173,31,46
 51+  2E15 B6 9C 09 D4
 51+  2E19 84 5D EA 51
 51+  2E1D 1F 62 F2 1F
 51+  2E21 E0 C3 AC FF
 51+  2E25 5D A0 81 24
 51+  2E29 48 91 3F 98
 51+  2E2D E8 AD 1F 2E
 52+  2E31 36 E3 6A 8F                          db	54,227,106,143,174,163,31,212,59,158,8,148,31,255,189,30,85,168,31,93,31,192,252,95,59,63,55,57,31,126,252,120
 52+  2E35 AE A3 1F D4
 52+  2E39 3B 9E 08 94
 52+  2E3D 1F FF BD 1E
 52+  2E41 55 A8 1F 5D
 52+  2E45 1F C0 FC 5F
 52+  2E49 3B 3F 37 39
 52+  2E4D 1F 7E FC 78
 53+  2E51 E4 C0 A5 18                          db	228,192,165,24,127,113,94,223,183,240,96,63,31,70,173,160,124,166,188,177,252,209,251,126,226,6,31,149,232,145,32,245
 53+  2E55 7F 71 5E DF
 53+  2E59 B7 F0 60 3F
 53+  2E5D 1F 46 AD A0
 53+  2E61 7C A6 BC B1
 53+  2E65 FC D1 FB 7E
 53+  2E69 E2 06 1F 95
 53+  2E6D E8 91 20 F5
 54+  2E71 09 EA D4 54                          db	9,234,212,84,31,72,149,127,56,2,245,125,31,1,17,31,187,254,189,95,171,91,148,91,10,52,232,126,29,252,83,179
 54+  2E75 1F 48 95 7F
 54+  2E79 38 02 F5 7D
 54+  2E7D 1F 01 11 1F
 54+  2E81 BB FE BD 5F
 54+  2E85 AB 5B 94 5B
 54+  2E89 0A 34 E8 7E
 54+  2E8D 1D FC 53 B3
 55+  2E91 F9 11 55 E8                          db	249,17,85,232,189,34,198,237,21,252,13,63,81,13,121,31,114,192,106,51,132,117,6,10,92,16,6,83,149,85,11,114
 55+  2E95 BD 22 C6 ED
 55+  2E99 15 FC 0D 3F
 55+  2E9D 51 0D 79 1F
 55+  2EA1 72 C0 6A 33
 55+  2EA5 84 75 06 0A
 55+  2EA9 5C 10 06 53
 55+  2EAD 95 55 0B 72
 56+  2EB1 22 00 5D 2A                          db	34,0,93,42,10,198,13,92,31,66,220,0,14,241,9,115,31,220,19,59,241,43,81,126,136,31,192,113,31,192,9,33
 56+  2EB5 0A C6 0D 5C
 56+  2EB9 1F 42 DC 00
 56+  2EBD 0E F1 09 73
 56+  2EC1 1F DC 13 3B
 56+  2EC5 F1 2B 51 7E
 56+  2EC9 88 1F C0 71
 56+  2ECD 1F C0 09 21
 57+  2ED1 1F 95 3A 1F                          db	31,149,58,31,159,8,0,4
 57+  2ED5 9F 08 00 04
 58+  2ED9              fuss
 59+  2ED9 20                                   db	32			; A sprite szélessége byte-okban
 60+  2EDA 78                                   db	120			; A sprite magassága
 61+  2EDB F3 81 48 00                          db	243,129,72,0,247,251,135,85,30,255,0,12,221,34,29,195,32,121,61,0,51,115,11,4,31,179,51,51,119,53,30,119
 61+  2EDF F7 FB 87 55
 61+  2EE3 1E FF 00 0C
 61+  2EE7 DD 22 1D C3
 61+  2EEB 20 79 3D 00
 61+  2EEF 33 73 0B 04
 61+  2EF3 1F B3 33 33
 61+  2EF7 77 35 1E 77
 62+  2EFB 20 00 70 1F                          db	32,0,112,31,215,34,30,5,98,0,204,140,89,27,30,8,230,204,76,12,115,62,63,33,12,89,196,31,76,54,31,230
 62+  2EFF D7 22 1E 05
 62+  2F03 62 00 CC 8C
 62+  2F07 59 1B 1E 08
 62+  2F0B E6 CC 4C 0C
 62+  2F0F 73 3E 3F 21
 62+  2F13 0C 59 C4 1F
 62+  2F17 4C 36 1F E6
 63+  2F1B B4 3F 0C 38                          db	180,63,12,56,31,76,134,202,31,247,238,63,67,25,100,175,221,16,25,25,51,214,95,31,153,33,25,38,146,249,41,230
 63+  2F1F 1F 4C 86 CA
 63+  2F23 1F F7 EE 3F
 63+  2F27 43 19 64 AF
 63+  2F2B DD 10 19 19
 63+  2F2F 33 D6 5F 1F
 63+  2F33 99 21 19 26
 63+  2F37 92 F9 29 E6
 64+  2F3B EE 3F 0C 31                          db	238,63,12,49,218,66,186,31,63,12,98,218,133,211,63,25,33,31,251,68,31,187,129,159,144,182,255,187,115,133,24,31
 64+  2F3F DA 42 BA 1F
 64+  2F43 3F 0C 62 DA
 64+  2F47 85 D3 3F 19
 64+  2F4B 21 1F FB 44
 64+  2F4F 1F BB 81 9F
 64+  2F53 90 B6 FF BB
 64+  2F57 73 85 18 1F
 65+  2F5B 33 9F 4C FA                          db	51,159,76,250,80,168,159,177,174,159,135,5,255,102,140,255,11,37,191,65,128,193,63,217,191,193,252,63,62,191,154,31
 65+  2F5F 50 A8 9F B1
 65+  2F63 AE 9F 87 05
 65+  2F67 FF 66 8C FF
 65+  2F6B 0B 25 BF 41
 65+  2F6F 80 C1 3F D9
 65+  2F73 BF C1 FC 3F
 65+  2F77 3E BF 9A 1F
 66+  2F7B 4C 1D 1F 10                          db	76,29,31,16,230,140,243,234,31,76,29,31,32,179,179,244,31,247,247,131,210,31,246,185,30,31,64,51,164,63,179,146
 66+  2F7F E6 8C F3 EA
 66+  2F83 1F 4C 1D 1F
 66+  2F87 20 B3 B3 F4
 66+  2F8B 1F F7 F7 83
 66+  2F8F D2 1F F6 B9
 66+  2F93 1E 1F 40 33
 66+  2F97 A4 3F B3 92
 67+  2F9B 88 21 B8 3F                          db	136,33,184,63,148,31,51,59,31,192,0,69,19,31,115,51,194,0,240,63,29,115,31,199,34,12,150,39,66,1,130,31
 67+  2F9F 94 1F 33 3B
 67+  2FA3 1F C0 00 45
 67+  2FA7 13 1F 73 33
 67+  2FAB C2 00 F0 3F
 67+  2FAF 1D 73 1F C7
 67+  2FB3 22 0C 96 27
 67+  2FB7 42 01 82 1F
 68+  2FBB 23 10 23 C0                          db	35,16,35,192,192,236,63,12,8,31,252,61,31,65,252,227,31,38,233,168,116,191,97,197,31,38,112,62,0,220,63,62
 68+  2FBF C0 EC 3F 0C
 68+  2FC3 08 1F FC 3D
 68+  2FC7 1F 41 FC E3
 68+  2FCB 1F 26 E9 A8
 68+  2FCF 74 BF 61 C5
 68+  2FD3 1F 26 70 3E
 68+  2FD7 00 DC 3F 3E
 69+  2FDB 1F FC B8 1F                          db	31,252,184,31,106,0,8,208,31,252,118,31,252,131,218,31,96,224,3,238,31,29,222,11,224,24,117,63,3,192,0,248
 69+  2FDF 6A 00 08 D0
 69+  2FE3 1F FC 76 1F
 69+  2FE7 FC 83 DA 1F
 69+  2FEB 60 E0 03 EE
 69+  2FEF 1F 1D DE 0B
 69+  2FF3 E0 18 75 3F
 69+  2FF7 03 C0 00 F8
 70+  2FFB 1F C0 B8 20                          db	31,192,184,32,54,31,14,115,115,255,192,0,27,63,130,46,31,4,14,238,31,4,15,208,31,255,115,31,42,36,255,11
 70+  2FFF 36 1F 0E 73
 70+  3003 73 FF C0 00
 70+  3007 1B 3F 82 2E
 70+  300B 1F 04 0E EE
 70+  300F 1F 04 0F D0
 70+  3013 1F FF 73 1F
 70+  3017 2A 24 FF 0B
 71+  301B 10 1F FF 7C                          db	16,31,255,124,0,192,131,233,0,16,68,204,164,0,240,98,46,64,31,136,191,8,12,82,0,120,125,9,200,31,0,4
 71+  301F 00 C0 83 E9
 71+  3023 00 10 44 CC
 71+  3027 A4 00 F0 62
 71+  302B 2E 40 1F 88
 71+  302F BF 08 0C 52
 71+  3033 00 78 7D 09
 71+  3037 C8 1F 00 04
 72+  303B
 73+  303B              dkj
 74+  303B 20                                   db	32			; A sprite szélessége byte-okban
 75+  303C 78                                   db	120			; A sprite magassága
 76+  303D C0 3B C0 68                          db	192,59,192,104,2,0,0,52,96,192,144,96,96,148,192,138,0,20,48,52,192,15,96,152,12,56,192,104,56,0,144,174
 76+  3041 02 00 00 34
 76+  3045 60 C0 90 60
 76+  3049 60 94 C0 8A
 76+  304D 00 14 30 34
 76+  3051 C0 0F 60 98
 76+  3055 0C 38 C0 68
 76+  3059 38 00 90 AE
 77+  305D 1D 0F A7 02                          db	29,15,167,2,63,242,60,12,148,144,41,30,144,142,80,52,48,96,20,117,63,148,241,7,21,63,31,55,3,115,31,97
 77+  3061 3F F2 3C 0C
 77+  3065 94 90 29 1E
 77+  3069 90 8E 50 34
 77+  306D 30 60 14 75
 77+  3071 3F 94 F1 07
 77+  3075 15 3F 1F 37
 77+  3079 03 73 1F 61
 78+  307D 3F 80 C5 6B                          db	63,128,197,107,224,125,138,52,185,65,189,55,0,106,96,197,41,255,61,125,124,116,42,22,132,193,143,144,18,62,148,160
 78+  3081 E0 7D 8A 34
 78+  3085 B9 41 BD 37
 78+  3089 00 6A 60 C5
 78+  308D 29 FF 3D 7D
 78+  3091 7C 74 2A 16
 78+  3095 84 C1 8F 90
 78+  3099 12 3E 94 A0
 79+  309D BA FF 02 52                          db	186,255,2,82,60,71,243,0,30,12,72,19,226,107,112,64,200,254,45,62,2,232,16,130,18,12,132,128,80,189,106,120
 79+  30A1 3C 47 F3 00
 79+  30A5 1E 0C 48 13
 79+  30A9 E2 6B 70 40
 79+  30AD C8 FE 2D 3E
 79+  30B1 02 E8 10 82
 79+  30B5 12 0C 84 80
 79+  30B9 50 BD 6A 78
 80+  30BD 90 3A AA 42                          db	144,58,170,66,55,162,31,60,60,156,8,104,64,77,127,22,61,56,104,143,54,159,0,72,252,124,104,148,139,64,251,20
 80+  30C1 37 A2 1F 3C
 80+  30C5 3C 9C 08 68
 80+  30C9 40 4D 7F 16
 80+  30CD 3D 38 68 8F
 80+  30D1 36 9F 00 48
 80+  30D5 FC 7C 68 94
 80+  30D9 8B 40 FB 14
 81+  30DD 2B D1 1C 87                          db	43,209,28,135,58,41,126,10,28,252,252,104,177,14,20,35,127,94,255,60,26,47,17,176,158,127,92,31,63,107,113,49
 81+  30E1 3A 29 7E 0A
 81+  30E5 1C FC FC 68
 81+  30E9 B1 0E 14 23
 81+  30ED 7F 5E FF 3C
 81+  30F1 1A 2F 11 B0
 81+  30F5 9E 7F 5C 1F
 81+  30F9 3F 6B 71 31
 82+  30FD 01 BE E0 03                          db	1,190,224,3,253,132,171,28,127,18,92,253,253,1,255,104,96,61,125,132,254,150,9,52,72,18,72,232,232,206,125,171
 82+  3101 FD 84 AB 1C
 82+  3105 7F 12 5C FD
 82+  3109 FD 01 FF 68
 82+  310D 60 3D 7D 84
 82+  3111 FE 96 09 34
 82+  3115 48 12 48 E8
 82+  3119 E8 CE 7D AB
 83+  311D 54 F8 18 BD                          db	84,248,24,189,196,16,167,12,28,172,161,160,244,60,52,104,221,126,124,78,65,232,58,31,212,131,191,74,158,61,78,70
 83+  3121 C4 10 A7 0C
 83+  3125 1C AC A1 A0
 83+  3129 F4 3C 34 68
 83+  312D DD 7E 7C 4E
 83+  3131 41 E8 3A 1F
 83+  3135 D4 83 BF 4A
 83+  3139 9E 3D 4E 46
 84+  313D 35 83 97 35                          db	53,131,151,53,182,12,72,31,188,228,0,243,25,240,33,251,195,187,117,197,212,72,117,12,31,130,191,188,231,117,253,10
 84+  3141 B6 0C 48 1F
 84+  3145 BC E4 00 F3
 84+  3149 19 F0 21 FB
 84+  314D C3 BB 75 C5
 84+  3151 D4 48 75 0C
 84+  3155 1F 82 BF BC
 84+  3159 E7 75 FD 0A
 85+  315D 0A C1 EB 84                          db	10,193,235,132,54,13,251,41,132,92,31,96,97,246,126,251,51,177,108,12,253,95,124,31,0,61,63,5,249,143,182,127
 85+  3161 36 0D FB 29
 85+  3165 84 5C 1F 60
 85+  3169 61 F6 7E FB
 85+  316D 33 B1 6C 0C
 85+  3171 FD 5F 7C 1F
 85+  3175 00 3D 3F 05
 85+  3179 F9 8F B6 7F
 86+  317D 25 02 F7 1F                          db	37,2,247,31,32,127,56,179,116,7,254,28,122,182,125,220,77,124,96,104,231,41,254,57,249,200,236,83,178,95,36,64
 86+  3181 20 7F 38 B3
 86+  3185 74 07 FE 1C
 86+  3189 7A B6 7D DC
 86+  318D 4D 7C 60 68
 86+  3191 E7 29 FE 39
 86+  3195 F9 C8 EC 53
 86+  3199 B2 5F 24 40
 87+  319D 7C E8 42 E3                          db	124,232,66,227,157,31,56,81,65,32,63,96,12,132,148,252,62,232,132,12,64,114,188,229,65,63,147,67,4,221,32,124
 87+  31A1 9D 1F 38 51
 87+  31A5 41 20 3F 60
 87+  31A9 0C 84 94 FC
 87+  31AD 3E E8 84 0C
 87+  31B1 40 72 BC E5
 87+  31B5 41 3F 93 43
 87+  31B9 04 DD 20 7C
 88+  31BD 65 CD 2C 3F                          db	101,205,44,63,97,137,207,4,79,67,159,138,224,72,230,31,95,164,199,156,201,44,191,170,127,248,0,8,164,64,56,82
 88+  31C1 61 89 CF 04
 88+  31C5 4F 43 9F 8A
 88+  31C9 E0 48 E6 1F
 88+  31CD 5F A4 C7 9C
 88+  31D1 C9 2C BF AA
 88+  31D5 7F F8 00 08
 88+  31D9 A4 40 38 52
 89+  31DD 88 DF 1F 61                          db	136,223,31,97,22,31,52,184,120,248,31,155,127,29,142,31,238,28,31,63,33,6,158,31,200,7,213,234,201,54,67,191
 89+  31E1 16 1F 34 B8
 89+  31E5 78 F8 1F 9B
 89+  31E9 7F 1D 8E 1F
 89+  31ED EE 1C 1F 3F
 89+  31F1 21 06 9E 1F
 89+  31F5 C8 07 D5 EA
 89+  31F9 C9 36 43 BF
 90+  31FD 35 E6 59 1F                          db	53,230,89,31,33,251,247,72,95,128,188,35,243,247,231,63,254,27,31,200,94,226,255,82,31,164,64,187,17,209,226,251
 90+  3201 21 FB F7 48
 90+  3205 5F 80 BC 23
 90+  3209 F3 F7 E7 3F
 90+  320D FE 1B 1F C8
 90+  3211 5E E2 FF 52
 90+  3215 1F A4 40 BB
 90+  3219 11 D1 E2 FB
 91+  321D 0B DE 1F 05                          db	11,222,31,5,31,234,133,103,95,249,28,190,16,251,233,31,226,243,10,204,31,205,2,209,251,226,28,31,66,213,136,62
 91+  3221 1F EA 85 67
 91+  3225 5F F9 1C BE
 91+  3229 10 FB E9 1F
 91+  322D E2 F3 0A CC
 91+  3231 1F CD 02 D1
 91+  3235 FB E2 1C 1F
 91+  3239 42 D5 88 3E
 92+  323D 84 97 FF 42                          db	132,151,255,66,226,125,63,123,164,168,193,128,10,39,63,104,31,66,209,185,63,162,207,11,10,161,63,192,207,95,63,203
 92+  3241 E2 7D 3F 7B
 92+  3245 A4 A8 C1 80
 92+  3249 0A 27 3F 68
 92+  324D 1F 42 D1 B9
 92+  3251 3F A2 CF 0B
 92+  3255 0A A1 3F C0
 92+  3259 CF 5F 3F CB
 93+  325D 48 6E 5F D6                          db	72,110,95,214,173,27,95,150,248,163,196,95,124,60,124,80,159,161,104,7,95,252,0,53,20,212,195,241,127,7,30,212
 93+  3261 AD 1B 5F 96
 93+  3265 F8 A3 C4 5F
 93+  3269 7C 3C 7C 50
 93+  326D 9F A1 68 07
 93+  3271 5F FC 00 35
 93+  3275 14 D4 C3 F1
 93+  3279 7F 07 1E D4
 94+  327D E8 41 C5 02                          db	232,65,197,2,44,130,113,0,212,148,109,239,10,164,205,181,32,96,13,33,31,124,229,31,252,194,96,3,191,58,173,108
 94+  3281 2C 82 71 00
 94+  3285 D4 94 6D EF
 94+  3289 0A A4 CD B5
 94+  328D 20 60 0D 21
 94+  3291 1F 7C E5 1F
 94+  3295 FC C2 60 03
 94+  3299 BF 3A AD 6C
 95+  329D 04 BC A0 10                          db	4,188,160,16,212,170,63,124,211,141,63,208,31,124,173,31,63,167,31,144,37,148,232,169,127,212,234,133,215,167,142,33
 95+  32A1 D4 AA 3F 7C
 95+  32A5 D3 8D 3F D0
 95+  32A9 1F 7C AD 1F
 95+  32AD 3F A7 1F 90
 95+  32B1 25 94 E8 A9
 95+  32B5 7F D4 EA 85
 95+  32B9 D7 A7 8E 21
 96+  32BD 0A 60 1F 95                          db	10,96,31,149,132,214,23,44,31,212,133,3,255,21,9,12,253,212,172,80,31,232,144,191,49,212,86,232,92,232,25,31
 96+  32C1 84 D6 17 2C
 96+  32C5 1F D4 85 03
 96+  32C9 FF 15 09 0C
 96+  32CD FD D4 AC 50
 96+  32D1 1F E8 90 BF
 96+  32D5 31 D4 56 E8
 96+  32D9 5C E8 19 1F
 97+  32DD 51 54 5A 1F                          db	81,84,90,31,119,172,215,31,226,31,30,159,82,141,184,110,24,31,243,52,227,31,206,255,131,181,173,75,159,6,247,64
 97+  32E1 77 AC D7 1F
 97+  32E5 E2 1F 1E 9F
 97+  32E9 52 8D B8 6E
 97+  32ED 18 1F F3 34
 97+  32F1 E3 1F CE FF
 97+  32F5 83 B5 AD 4B
 97+  32F9 9F 06 F7 40
 98+  32FD FC 84 9E ED                          db	252,132,158,237,135,212,54,194,194,156,31,251,11,37,31,100,149,104,41,124,44,169,208,255,161,255,222,31,218,59,173,230
 98+  3301 87 D4 36 C2
 98+  3305 C2 9C 1F FB
 98+  3309 0B 25 1F 64
 98+  330D 95 68 29 7C
 98+  3311 2C A9 D0 FF
 98+  3315 A1 FF DE 1F
 98+  3319 DA 3B AD E6
 99+  331D A9 F7 71 84                          db	169,247,113,132,120,40,31,104,186,31,97,160,160,178,166,143,192,63,50,159,9,66,65,72,243,226,12,53,127,212,117,8
 99+  3321 78 28 1F 68
 99+  3325 BA 1F 61 A0
 99+  3329 A0 B2 A6 8F
 99+  332D C0 3F 32 9F
 99+  3331 09 42 41 48
 99+  3335 F3 E2 0C 35
 99+  3339 7F D4 75 08
100+  333D 13 32 1F D1                          db	19,50,31,209,63,31,222,203,250,33,213,255,212,48,129,35,12,50,31,206,229,117,31,178,250,194,195,104,209,156,191,121
100+  3341 3F 1F DE CB
100+  3345 FA 21 D5 FF
100+  3349 D4 30 81 23
100+  334D 0C 32 1F CE
100+  3351 E5 75 1F B2
100+  3355 FA C2 C3 68
100+  3359 D1 9C BF 79
101+  335D 5D 95 1F E8                          db	93,149,31,232,194,53,65,81,61,180,141,252,186,31,129,188,4,255,234,177,249,142,31,198,183,179,192,29,234,19,68,170
101+  3361 C2 35 41 51
101+  3365 3D B4 8D FC
101+  3369 BA 1F 81 BC
101+  336D 04 FF EA B1
101+  3371 F9 8E 1F C6
101+  3375 B7 B3 C0 1D
101+  3379 EA 13 44 AA
102+  337D 3F 29 91 1F                          db	63,41,145,31,209,56,31,94,188,148,212,174,31,4,205,225,172,212,28,31,82,237,239,31,188,51,22,235,31,198,123,62
102+  3381 D1 38 1F 5E
102+  3385 BC 94 D4 AE
102+  3389 1F 04 CD E1
102+  338D AC D4 1C 1F
102+  3391 52 ED EF 1F
102+  3395 BC 33 16 EB
102+  3399 1F C6 7B 3E
103+  339D 1F 46 48 39                          db	31,70,72,57,31,104,19,30,31,72,132,88,254,93,92,197,126,80,63,146,40,124,31,44,104,155,31,73,139,31,170,83
103+  33A1 1F 68 13 1E
103+  33A5 1F 48 84 58
103+  33A9 FE 5D 5C C5
103+  33AD 7E 50 3F 92
103+  33B1 28 7C 1F 2C
103+  33B5 68 9B 1F 49
103+  33B9 8B 1F AA 53
104+  33BD F6 0B 3F 7C                          db	246,11,63,124,28,9,42,151,237,198,29,80,63,248,221,63,114,64,73,219,142,243,174,168,175,63,22,185,75,63,99,28
104+  33C1 1C 09 2A 97
104+  33C5 ED C6 1D 50
104+  33C9 3F F8 DD 3F
104+  33CD 72 40 49 DB
104+  33D1 8E F3 AE A8
104+  33D5 AF 3F 16 B9
104+  33D9 4B 3F 63 1C
105+  33DD CA 7B 1E 3F                          db	202,123,30,63,209,172,190,31,40,183,243,247,251,31,63,0,88,104,156,249,95,162,162,226,215,213,32,150,63,151,0,132
105+  33E1 D1 AC BE 1F
105+  33E5 28 B7 F3 F7
105+  33E9 FB 1F 3F 00
105+  33ED 58 68 9C F9
105+  33F1 5F A2 A2 E2
105+  33F5 D7 D5 20 96
105+  33F9 3F 97 00 84
106+  33FD 5E 47 E2 17                          db	94,71,226,23,31,120,95,255,223,62,0,47,31,173,81,184,31,149,242,102,80,62,155,201,237,113,114,31,4,190,243,63
106+  3401 1F 78 5F FF
106+  3405 DF 3E 00 2F
106+  3409 1F AD 51 B8
106+  340D 1F 95 F2 66
106+  3411 50 3E 9B C9
106+  3415 ED 71 72 1F
106+  3419 04 BE F3 3F
107+  341D 12 DA F3 35                          db	18,218,243,53,238,238,6,121,127,102,141,46,208,18,60,36,162,201,127,72,238,141,63,207,101,63,231,126,31,143,239,153
107+  3421 EE EE 06 79
107+  3425 7F 66 8D 2E
107+  3429 D0 12 3C 24
107+  342D A2 C9 7F 48
107+  3431 EE 8D 3F CF
107+  3435 65 3F E7 7E
107+  3439 1F 8F EF 99
108+  343D 82 FF E7 1F                          db	130,255,231,31,92,227,66,227,63,14,186,55,31,192,13,66,104,17,168,232,213,153,69,199,231,252,9,246,205,124,174,70
108+  3441 5C E3 42 E3
108+  3445 3F 0E BA 37
108+  3449 1F C0 0D 42
108+  344D 68 11 A8 E8
108+  3451 D5 99 45 C7
108+  3455 E7 FC 09 F6
108+  3459 CD 7C AE 46
109+  345D D1 DD 3F 3E                          db	209,221,63,62,199,31,197,58,5,128,194,31,210,0,14,192,158,16,196,31,133,128,12,246,62,0,254,8,72,102,63,67
109+  3461 C7 1F C5 3A
109+  3465 05 80 C2 1F
109+  3469 D2 00 0E C0
109+  346D 9E 10 C4 1F
109+  3471 85 80 0C F6
109+  3475 3E 00 FE 08
109+  3479 48 66 3F 43
110+  347D C0 43 0C 39                          db	192,67,12,57,96,214,202,190,112,184,158,107,192,101,254,13,90,31,129,33,12,138,96,25,178,253,134,238,31,0,31,31
110+  3481 60 D6 CA BE
110+  3485 70 B8 9E 6B
110+  3489 C0 65 FE 0D
110+  348D 5A 1F 81 21
110+  3491 0C 8A 60 19
110+  3495 B2 FD 86 EE
110+  3499 1F 00 1F 1F
111+  349D 86 02 80 E2                          db	134,2,128,226,57,144,31,209,156,63,246,5,250,80,173,31,194,6,189,205,118,95,229,19,199,127,221,36,24,44,133,88
111+  34A1 39 90 1F D1
111+  34A5 9C 3F F6 05
111+  34A9 FA 50 AD 1F
111+  34AD C2 06 BD CD
111+  34B1 76 5F E5 13
111+  34B5 C7 7F DD 24
111+  34B9 18 2C 85 58
112+  34BD BF 22 D1 C2                          db	191,34,209,194,132,238,57,31,41,62,213,199,31,201,96,3,9,165,159,201,85,31,175,160,1,9,14,253,248,82,212,95
112+  34C1 84 EE 39 1F
112+  34C5 29 3E D5 C7
112+  34C9 1F C9 60 03
112+  34CD 09 A5 9F C9
112+  34D1 55 1F AF A0
112+  34D5 01 09 0E FD
112+  34D9 F8 52 D4 5F
113+  34DD 06 33 1F 75                          db	6,51,31,117,153,13,93,31,185,67,35,225,252,34,2,1,121,161,67,208,0,0,8
113+  34E1 99 0D 5D 1F
113+  34E5 B9 43 23 E1
113+  34E9 FC 22 02 01
113+  34ED 79 A1 43 D0
113+  34F1 00 00 08
114+  34F4              crossfire
115+  34F4 20                                   db	32			; A sprite szélessége byte-okban
116+  34F5 78                                   db	120			; A sprite magassága
117+  34F6 C0 82 92 00                          db	192,130,146,0,98,145,120,4,81,0,209,165,2,226,4,141,0,38,145,98,62,169,10,98,4,242,21,0,115,179,111,7
117+  34FA 62 91 78 04
117+  34FE 51 00 D1 A5
117+  3502 02 E2 04 8D
117+  3506 00 26 91 62
117+  350A 3E A9 0A 62
117+  350E 04 F2 15 00
117+  3512 73 B3 6F 07
118+  3516 02 09 B8 04                          db	2,9,184,4,192,21,192,132,12,12,74,72,49,179,119,115,51,4,25,21,147,17,70,137,19,74,204,204,197,4,137,21
118+  351A C0 15 C0 84
118+  351E 0C 0C 4A 48
118+  3522 31 B3 77 73
118+  3526 33 04 19 15
118+  352A 93 11 46 89
118+  352E 13 4A CC CC
118+  3532 C5 04 89 15
119+  3536 73 F6 F9 97                          db	115,246,249,151,74,132,49,199,4,92,21,41,124,31,240,21,252,127,104,191,125,122,9,207,4,21,30,255,26,90,145,227
119+  353A 4A 84 31 C7
119+  353E 04 5C 15 29
119+  3542 7C 1F F0 15
119+  3546 FC 7F 68 BF
119+  354A 7D 7A 09 CF
119+  354E 04 15 1E FF
119+  3552 1A 5A 91 E3
120+  3556 04 C2 FF 22                          db	4,194,255,34,39,165,34,4,133,137,0,226,209,224,4,181,0,255,80,0,118,7,171,16,3,3,87,11,220,7,42,151
120+  355A 27 A5 22 04
120+  355E 85 89 00 E2
120+  3562 D1 E0 04 B5
120+  3566 00 FF 50 00
120+  356A 76 07 AB 10
120+  356E 03 03 57 0B
120+  3572 DC 07 2A 97
121+  3576 49 48 E1 0F                          db	73,72,225,15,248,31,89,0,200,60,8,27,32,31,234,250,31,3,254,0,5,22,159,161,241,67,213,155,15,251,193,239
121+  357A F8 1F 59 00
121+  357E C8 3C 08 1B
121+  3582 20 1F EA FA
121+  3586 1F 03 FE 00
121+  358A 05 16 9F A1
121+  358E F1 43 D5 9B
121+  3592 0F FB C1 EF
122+  3596 0F DB 10 E3                          db	15,219,16,227,15,238,15,67,221,97,15,234,253,254,213,7,112,15,252,95,62,159,16,126,255,16,184,223,193,249,191,91
122+  359A 0F EE 0F 43
122+  359E DD 61 0F EA
122+  35A2 FD FE D5 07
122+  35A6 70 0F FC 5F
122+  35AA 3E 9F 10 7E
122+  35AE FF 10 B8 DF
122+  35B2 C1 F9 BF 5B
123+  35B6 00 D4 02 43                          db	0,212,2,67,232,251,252,14,121,0,143,29,15,26,14,132,197,139,72,27,15,24,14,192,8,76,76,140,140,177,15,72
123+  35BA E8 FB FC 0E
123+  35BE 79 00 8F 1D
123+  35C2 0F 1A 0E 84
123+  35C6 C5 8B 48 1B
123+  35CA 0F 18 0E C0
123+  35CE 08 4C 4C 8C
123+  35D2 8C B1 0F 48
124+  35D6 FC 84 1A 1F                          db	252,132,26,31,236,69,221,130,31,132,172,255,92,72,18,63,38,19,234,31,160,218,141,31,227,127,46,31,63,27,159,11
124+  35DA EC 45 DD 82
124+  35DE 1F 84 AC FF
124+  35E2 5C 48 12 3F
124+  35E6 26 13 EA 1F
124+  35EA A0 DA 8D 1F
124+  35EE E3 7F 2E 1F
124+  35F2 3F 1B 9F 0B
125+  35F6 7F 86 C2 DF                          db	127,134,194,223,60,191,4,192,66,129,116,47,22,137,191,209,226,192,1,223,191,182,191,112,230,31,255,112,123,31,140,211
125+  35FA 3C BF 04 C0
125+  35FE 42 81 74 2F
125+  3602 16 89 BF D1
125+  3606 E2 C0 01 DF
125+  360A BF B6 BF 70
125+  360E E6 1F FF 70
125+  3612 7B 1F 8C D3
126+  3616 39 1F 6B BF                          db	57,31,107,191,14,90,63,255,195,240,31,119,95,192,31,186,255,16,37,52,159,18,97,0,143,7,184,31,143,195,142,30
126+  361A 0E 5A 3F FF
126+  361E C3 F0 1F 77
126+  3622 5F C0 1F BA
126+  3626 FF 10 25 34
126+  362A 9F 12 61 00
126+  362E 8F 07 B8 1F
126+  3632 8F C3 8E 1E
127+  3636 C4 1F 1D 94                          db	196,31,29,148,236,143,144,192,252,31,30,112,95,31,46,132,255,15,219,191,0,187,192,7,208,159,208,156,0,0,2
127+  363A EC 8F 90 C0
127+  363E FC 1F 1E 70
127+  3642 5F 1F 2E 84
127+  3646 FF 0F DB BF
127+  364A 00 BB C0 07
127+  364E D0 9F D0 9C
127+  3652 00 00 02
128+  3655              gombocfalo
129+  3655 20                                   db	32			; A sprite szélessége byte-okban
130+  3656 78                                   db	120			; A sprite magassága
131+  3657 03 80 F0 00                          db	3,128,240,0,4,70,137,66,192,129,52,31,220,16,140,66,195,118,31,204,135,208,31,12,234,31,140,30,31,33,6,9
131+  365B 04 46 89 42
131+  365F C0 81 34 1F
131+  3663 DC 10 8C 42
131+  3667 C3 76 1F CC
131+  366B 87 D0 1F 0C
131+  366F EA 1F 8C 1E
131+  3673 1F 21 06 09
132+  3677 DE 1F 00 30                          db	222,31,0,48,223,2,204,3,192,192,27,141,16,236,9,193,194,131,180,31,204,60,31,140,135,144,31,12,232,31,3,12
132+  367B DF 02 CC 03
132+  367F C0 C0 1B 8D
132+  3683 10 EC 09 C1
132+  3687 C2 83 B4 1F
132+  368B CC 3C 1F 8C
132+  368F 87 90 1F 0C
132+  3693 E8 1F 03 0C
133+  3697 03 87 56 1F                          db	3,135,86,31,3,223,16,6,35,0,1,221,229,16,241,0,86,252,14,152,31,253,254,34,169,3,252,143,4,136,0,1
133+  369B 03 DF 10 06
133+  369F 23 00 01 DD
133+  36A3 E5 10 F1 00
133+  36A7 56 FC 0E 98
133+  36AB 1F FD FE 22
133+  36AF A9 03 FC 8F
133+  36B3 04 88 00 01
134+  36B7 E9 FC 29 FD                          db	233,252,41,253,188,86,254,31,4,5,13,31,252,31,252,199,16,197,4,33,31,188,211,31,105,60,16,17,60,86,188,241
134+  36BB BC 56 FE 1F
134+  36BF 04 05 0D 1F
134+  36C3 FC 1F FC C7
134+  36C7 10 C5 04 21
134+  36CB 1F BC D3 1F
134+  36CF 69 3C 10 11
134+  36D3 3C 56 BC F1
135+  36D7 04 6E 1F BC                          db	4,110,31,188,16,62,4,36,31,60,60,56,3,22,13,66,4,127,0,13,11,129,70,0,30,243,27,159,24,60,31,65
135+  36DB 10 3E 04 24
135+  36DF 1F 3C 3C 38
135+  36E3 03 16 0D 42
135+  36E7 04 7F 00 0D
135+  36EB 0B 81 46 00
135+  36EF 1E F3 1B 9F
135+  36F3 18 3C 1F 41
136+  36F7 FC F2 1F BC                          db	252,242,31,188,30,31,177,191,134,224,0,83,179,24,190,174,180,132,134,186,142,67,228,181,133,135,117,31,197,133,186,174
136+  36FB 1E 1F B1 BF
136+  36FF 86 E0 00 53
136+  3703 B3 18 BE AE
136+  3707 B4 84 86 BA
136+  370B 8E 43 E4 B5
136+  370F 85 87 75 1F
136+  3713 C5 85 BA AE
137+  3717 CE E4 11 1F                          db	206,228,17,31,67,140,209,31,61,174,34,132,92,31,45,174,214,132,145,241,31,157,174,34,132,65,251,229,64,51,112,0
137+  371B 43 8C D1 1F
137+  371F 3D AE 22 84
137+  3723 5C 1F 2D AE
137+  3727 D6 84 91 F1
137+  372B 1F 9D AE 22
137+  372F 84 41 FB E5
137+  3733 40 33 70 00
138+  3737 F9 BB 65 FB                          db	249,187,101,251,1,125,31,2,42,155,125,170,14,253,77,138,56,141,65,170,31,204,31,31,67,12,168,31,140,123,31,170
138+  373B 01 7D 1F 02
138+  373F 2A 9B 7D AA
138+  3743 0E FD 4D 8A
138+  3747 38 8D 41 AA
138+  374B 1F CC 1F 1F
138+  374F 43 0C A8 1F
138+  3753 8C 7B 1F AA
139+  3757 EB 05 80 B6                          db	235,5,128,182,201,104,0,4
139+  375B C9 68 00 04
140+  375F              filler
141+  375F 20                                   db	32			; A sprite szélessége byte-okban
142+  3760 78                                   db	120			; A sprite magassága
143+  3761 C0 81 FD 00                          db	192,129,253,0,240,20,0,252,132,32,0,57,195,31,204,204,207,207,11,62,243,243,17,9,3,206,31,201,0,195,195,224
143+  3765 F0 14 00 FC
143+  3769 84 20 00 39
143+  376D C3 1F CC CC
143+  3771 CF CF 0B 3E
143+  3775 F3 F3 11 09
143+  3779 03 CE 1F C9
143+  377D 00 C3 C3 E0
144+  3781 15 3D 71 1F                          db	21,61,113,31,157,198,155,3,239,31,161,60,161,126,33,37,3,222,31,215,165,3,59,255,255,21,3,238,43,7,3,182
144+  3785 9D C6 9B 03
144+  3789 EF 1F A1 3C
144+  378D A1 7E 21 25
144+  3791 03 DE 1F D7
144+  3795 A5 03 3B FF
144+  3799 FF 15 03 EE
144+  379D 2B 07 03 B6
145+  37A1 1F D6 A3 DF                          db	31,214,163,223,169,23,251,5,9,47,128,237,31,199,145,27,177,153,255,31,0,5,0,206,171,3,134,31,7,95,0,121
145+  37A5 A9 17 FB 05
145+  37A9 09 2F 80 ED
145+  37AD 1F C7 91 1B
145+  37B1 B1 99 FF 1F
145+  37B5 00 05 00 CE
145+  37B9 AB 03 86 1F
145+  37BD 07 5F 00 79
146+  37C1 00 83 B6 1F                          db	0,131,182,31,226,2,209,130,172,31,234,20,192,235,85,130,184,131,254,90,88,131,44,226,128,96,58,224,31,252,191,96
146+  37C5 E2 02 D1 82
146+  37C9 AC 1F EA 14
146+  37CD C0 EB 55 82
146+  37D1 B8 83 FE 5A
146+  37D5 58 83 2C E2
146+  37D9 80 60 3A E0
146+  37DD 1F FC BF 60
147+  37E1 50 BF 28 32                          db	80,191,40,50,0,94,234,1,6,232,208,1,212,57,182,31,213,0,234,2,192,117,212,29,0,3,162,31,192,208,31,192
147+  37E5 00 5E EA 01
147+  37E9 06 E8 D0 01
147+  37ED D4 39 B6 1F
147+  37F1 D5 00 EA 02
147+  37F5 C0 75 D4 1D
147+  37F9 00 03 A2 1F
147+  37FD C0 D0 1F C0
148+  3801 3C 3E 1F FF                          db	60,62,31,255,31,3,196,159,252,212,64,252,231,31,56,159,99,162,192,1,229,31,97,157,248,3,26,157,32,232,117,31
148+  3805 1F 03 C4 9F
148+  3809 FC D4 40 FC
148+  380D E7 1F 38 9F
148+  3811 63 A2 C0 01
148+  3815 E5 1F 61 9D
148+  3819 F8 03 1A 9D
148+  381D 20 E8 75 1F
149+  3821 80 D5 00 80                          db	128,213,0,128,0,64
149+  3825 00 40
150+  3827              puckman
151+  3827 20                                   db	32			; A sprite szélessége byte-okban
152+  3828 78                                   db	120			; A sprite magassága
153+  3829 03 80 81 00                          db	3,128,129,0,16,66,192,129,224,31,192,207,192,135,4,31,197,207,202,56,94,207,208,0,129,45,2,31,71,223,239,207
153+  382D 10 42 C0 81
153+  3831 E0 1F C0 CF
153+  3835 C0 87 04 1F
153+  3839 C5 CF CA 38
153+  383D 5E CF D0 00
153+  3841 81 2D 02 1F
153+  3845 47 DF EF CF
154+  3849 8B 1B 1F 10                          db	139,27,31,16,255,239,255,216,31,197,255,213,33,255,202,177,31,234,255,234,14,136,31,213,213,202,76,213,102,8,104,207
154+  384D FF EF FF D8
154+  3851 1F C5 FF D5
154+  3855 21 FF CA B1
154+  3859 1F EA FF EA
154+  385D 0E 88 1F D5
154+  3861 D5 CA 4C D5
154+  3865 66 08 68 CF
155+  3869 1F C0 49 1F                          db	31,192,73,31,192,204,0,222,8,202,76,31,66,196,18,204,200,129,142,253,0,192,66,139,46,62,204,0,216,31,66,253
155+  386D C0 CC 00 DE
155+  3871 08 CA 4C 1F
155+  3875 42 C4 12 CC
155+  3879 C8 81 8E FD
155+  387D 00 C0 42 8B
155+  3881 2E 3E CC 00
155+  3885 D8 1F 42 FD
156+  3889 C2 83 9F E9                          db	194,131,159,233,62,0,137,33,94,90,31,30,228,96,72,66,197,108,31,66,29,221,238,79,200,127,10,11,31,255,238,204
156+  388D 3E 00 89 21
156+  3891 5E 5A 1F 1E
156+  3895 E4 60 48 42
156+  3899 C5 6C 1F 42
156+  389D 1D DD EE 4F
156+  38A1 C8 7F 0A 0B
156+  38A5 1F FF EE CC
157+  38A9 09 92 7F 11                          db	9,146,127,17,190,12,61,255,255,191,31,9,64,132,140,159,70,221,199,212,31,146,86,21,31,241,61,182,148,31,197,202
157+  38AD BE 0C 3D FF
157+  38B1 FF BF 1F 09
157+  38B5 40 84 8C 9F
157+  38B9 46 DD C7 D4
157+  38BD 1F 92 56 15
157+  38C1 1F F1 3D B6
157+  38C5 94 1F C5 CA
158+  38C9 84 89 1F C4                          db	132,137,31,196,234,240,31,224,66,192,97,254,229,29,214,55,95,64,10,79,31,95,194,96,72,222,196,251,61,31,192,27
158+  38CD EA F0 1F E0
158+  38D1 42 C0 61 FE
158+  38D5 E5 1D D6 37
158+  38D9 5F 40 0A 4F
158+  38DD 1F 5F C2 60
158+  38E1 48 DE C4 FB
158+  38E5 3D 1F C0 1B
159+  38E9 40 E1 26 36                          db	64,225,38,54,63,200,191,8,200,237,21,40,129,19,31,140,129,121,31,66,129,207,1,31,194,61,60,31,104,66,106,70
159+  38ED 3F C8 BF 08
159+  38F1 C8 ED 15 28
159+  38F5 81 13 1F 8C
159+  38F9 81 79 1F 42
159+  38FD 81 CF 01 1F
159+  3901 C2 3D 3C 1F
159+  3905 68 42 6A 46
160+  3909 AC 1D E1 A3                          db	172,29,225,163,14,62,212,192,1,53,31,192,24,62,252,174,1,17,114,159,188,0,194,227,156,31,148,97,92,31,94,96
160+  390D 0E 3E D4 C0
160+  3911 01 35 1F C0
160+  3915 18 3E FC AE
160+  3919 01 11 72 9F
160+  391D BC 00 C2 E3
160+  3921 9C 1F 94 61
160+  3925 5C 1F 5E 60
161+  3929 5E FC A2 01                          db	94,252,162,1,188,192,41,31,196,22,96,192,20,232,124,252,33,232,68,129,174,31,200,77,125,62,90,212,124,31,100,82
161+  392D BC C0 29 1F
161+  3931 C4 16 60 C0
161+  3935 14 E8 7C FC
161+  3939 21 E8 44 81
161+  393D AE 1F C8 4D
161+  3941 7D 3E 5A D4
161+  3945 7C 1F 64 52
162+  3949 5F C0 34 BD                          db	95,192,52,189,44,65,252,104,146,14,60,159,61,94,121,212,115,65,46,96,196,126,47,31,60,46,192,60,31,107,96,31
162+  394D 2C 41 FC 68
162+  3951 92 0E 3C 9F
162+  3955 3D 5E 79 D4
162+  3959 73 41 2E 60
162+  395D C4 7E 2F 1F
162+  3961 3C 2E C0 3C
162+  3965 1F 6B 60 1F
163+  3969 E2 7E 4F 5F                          db	226,126,79,95,66,124,31,1,190,95,64,65,160,157,223,39,31,127,252,95,31,28,58,96,66,56,253,5,148,252,124,53
163+  396D 42 7C 1F 01
163+  3971 BE 5F 40 41
163+  3975 A0 9D DF 27
163+  3979 1F 7F FC 5F
163+  397D 1F 1C 3A 60
163+  3981 42 38 FD 05
163+  3985 94 FC 7C 35
164+  3989 91 54 1C 20                          db	145,84,28,32,209,31,129,253,150,121,192,148,31,148,153,31,3,92,29,96,88,188,225,156,220,31,62,193,225,64,188,196
164+  398D D1 1F 81 FD
164+  3991 96 79 C0 94
164+  3995 1F 94 99 1F
164+  3999 03 5C 1D 60
164+  399D 58 BC E1 9C
164+  39A1 DC 1F 3E C1
164+  39A5 E1 40 BC C4
165+  39A9 96 60 CA F4                          db	150,96,202,244,201,126,212,148,121,62,36,57,21,31,95,162,5,94,192,31,156,12,104,190,28,188,70,253,31,64,206,61
165+  39AD C9 7E D4 94
165+  39B1 79 3E 24 39
165+  39B5 15 1F 5F A2
165+  39B9 05 5E C0 1F
165+  39BD 9C 0C 68 BE
165+  39C1 1C BC 46 FD
165+  39C5 1F 40 CE 3D
166+  39C9 BF 9D 59 84                          db	191,157,89,132,222,163,192,48,128,28,192,196,6,207,128,165,8,212,31,139,160,9,146,183,89,190,254,31,90,31,66,158
166+  39CD DE A3 C0 30
166+  39D1 80 1C C0 C4
166+  39D5 06 CF 80 A5
166+  39D9 08 D4 1F 8B
166+  39DD A0 09 92 B7
166+  39E1 59 BE FE 1F
166+  39E5 5A 1F 42 9E
167+  39E9 B8 1F CA DD                          db	184,31,202,221,221,0,139,31,202,118,156,23,35,25,221,84,255,235,66,31,231,65,31,70,232,190,31,202,31,19,124,0
167+  39ED DD 00 8B 1F
167+  39F1 CA 76 9C 17
167+  39F5 23 19 DD 54
167+  39F9 FF EB 42 1F
167+  39FD E7 41 1F 46
167+  3A01 E8 BE 1F CA
167+  3A05 1F 13 7C 00
168+  3A09 C5 23 2C 1F                          db	197,35,44,31,158,56,222,39,66,188,30,227,91,175,31,62,31,79,232,30,65,198,198,103,108,31,30,224,95,104,212,137
168+  3A0D 9E 38 DE 27
168+  3A11 42 BC 1E E3
168+  3A15 5B AF 1F 3E
168+  3A19 1F 4F E8 1E
168+  3A1D 41 C6 C6 67
168+  3A21 6C 1F 1E E0
168+  3A25 5F 68 D4 89
169+  3A29 3E E3 22 0D                          db	62,227,34,13,31,192,120,63,86,166,22,124,62,240,31,129,69,104,208,134,208,240,197,180,31,192,216,62,228,8,148,188
169+  3A2D 1F C0 78 3F
169+  3A31 56 A6 16 7C
169+  3A35 3E F0 1F 81
169+  3A39 45 68 D0 86
169+  3A3D D0 F0 C5 B4
169+  3A41 1F C0 D8 3E
169+  3A45 E4 08 94 BC
170+  3A49 94 A4 B6 35                          db	148,164,182,53,60,240,31,207,21,186,171,32,188,5,129,95,106,14,159,32,31,203,30,240,207,31,159,0,156,15,31,97
170+  3A4D 3C F0 1F CF
170+  3A51 15 BA AB 20
170+  3A55 BC 05 81 5F
170+  3A59 6A 0E 9F 20
170+  3A5D 1F CB 1E F0
170+  3A61 CF 1F 9F 00
170+  3A65 9C 0F 1F 61
171+  3A69 43 C0 4E 1F                          db	67,192,78,31,124,30,100,196,180,31,245,33,31,26,130,85,31,132,159,86,31,199,146,12,231,92,63,103,31,90,197,64
171+  3A6D 7C 1E 64 C4
171+  3A71 B4 1F F5 21
171+  3A75 1F 1A 82 55
171+  3A79 1F 84 9F 56
171+  3A7D 1F C7 92 0C
171+  3A81 E7 5C 3F 67
171+  3A85 1F 5A C5 40
172+  3A89 BE 1F 7D 1F                          db	190,31,125,31,20,26,31,100,208,31,224,129,93,31,146,138,192,36,127,208,250,209,31,3,43,31,148,194,68,232,105,31
172+  3A8D 14 1A 1F 64
172+  3A91 D0 1F E0 81
172+  3A95 5D 1F 92 8A
172+  3A99 C0 24 7F D0
172+  3A9D FA D1 1F 03
172+  3AA1 2B 1F 94 C2
172+  3AA5 44 E8 69 1F
173+  3AA9 68 42 13 1F                          db	104,66,19,31,71,232,79,196,20,31,192,41,240,180,21,104,23,31,113,101,77,216,68,19,104,232,246,31,192,120,161,70
173+  3AAD 47 E8 4F C4
173+  3AB1 14 1F C0 29
173+  3AB5 F0 B4 15 68
173+  3AB9 17 1F 71 65
173+  3ABD 4D D8 44 13
173+  3AC1 68 E8 F6 1F
173+  3AC5 C0 78 A1 46
174+  3AC9 D6 1F 13 11                          db	214,31,19,17,204,157,31,188,92,66,50,81,161,44,252,31,196,221,74,200,158,22,225,133,232,207,151,160,13,18,31,188
174+  3ACD CC 9D 1F BC
174+  3AD1 5C 42 32 51
174+  3AD5 A1 2C FC 1F
174+  3AD9 C4 DD 4A C8
174+  3ADD 9E 16 E1 85
174+  3AE1 E8 CF 97 A0
174+  3AE5 0D 12 1F BC
175+  3AE9 B7 8F BB 7E                          db	183,143,187,126,129,76,128,40,180,232,249,48,247,136,31,76,252,175,246,165,125,93,221,242,148,185,191,100,51,50,119,31
175+  3AED 81 4C 80 28
175+  3AF1 B4 E8 F9 30
175+  3AF5 F7 88 1F 4C
175+  3AF9 FC AF F6 A5
175+  3AFD 7D 5D DD F2
175+  3B01 94 B9 BF 64
175+  3B05 33 32 77 1F
176+  3B09 40 D9 0A 85                          db	64,217,10,133,200,210,182,184,51,89,31,181,73,31,42,133,90,242,89,31,255,224,49,226,210,223,202,128,9,252,232,31
176+  3B0D C8 D2 B6 B8
176+  3B11 33 59 1F B5
176+  3B15 49 1F 2A 85
176+  3B19 5A F2 59 1F
176+  3B1D FF E0 31 E2
176+  3B21 D2 DF CA 80
176+  3B25 09 FC E8 1F
177+  3B29 3F D5 FA 4D                          db	63,213,250,77,213,31,221,11,67,60,144,188,62,10,129,31,224,250,234,250,20,222,246,251,115,172,194,130,127,245,208,192
177+  3B2D D5 1F DD 0B
177+  3B31 43 3C 90 BC
177+  3B35 3E 0A 81 1F
177+  3B39 E0 FA EA FA
177+  3B3D 14 DE F6 FB
177+  3B41 73 AC C2 82
177+  3B45 7F F5 D0 C0
178+  3B49 26 1F C5 97                          db	38,31,197,151,60,16,163,182,63,66,56,224,213,31,148,166,184,23,244,31,255,45,31,217,94,31,245,255,23,31,172,179
178+  3B4D 3C 10 A3 B6
178+  3B51 3F 42 38 E0
178+  3B55 D5 1F 94 A6
178+  3B59 B8 17 F4 1F
178+  3B5D FF 2D 1F D9
178+  3B61 5E 1F F5 FF
178+  3B65 17 1F AC B3
179+  3B69 20 1F FA CD                          db	32,31,250,205,250,161,24,197,81,164,31,240,250,227,160,38,31,129,113,174,31,3,29,162,31,130,128,33,31,232,116,31
179+  3B6D FA A1 18 C5
179+  3B71 51 A4 1F F0
179+  3B75 FA E3 A0 26
179+  3B79 1F 81 71 AE
179+  3B7D 1F 03 1D A2
179+  3B81 1F 82 80 21
179+  3B85 1F E8 74 1F
180+  3B89 D8 76 20 C0                          db	216,118,32,192,158,30,214,215,112,254,49,66,71,223,154,31,123,96,156,24,135,130,249,44,0,103,31,167,110,252,232,214
180+  3B8D 9E 1E D6 D7
180+  3B91 70 FE 31 42
180+  3B95 47 DF 9A 1F
180+  3B99 7B 60 9C 18
180+  3B9D 87 82 F9 2C
180+  3BA1 00 67 1F A7
180+  3BA5 6E FC E8 D6
181+  3BA9 F9 1F EA DE                          db	249,31,234,222,231,216,31,138,127,94,66,186,38,192,94,154,153,87,82,95,37,234,74,158,41,212,71,129,135,41,165,217
181+  3BAD E7 D8 1F 8A
181+  3BB1 7F 5E 42 BA
181+  3BB5 26 C0 5E 9A
181+  3BB9 99 57 52 5F
181+  3BBD 25 EA 4A 9E
181+  3BC1 29 D4 47 81
181+  3BC5 87 29 A5 D9
182+  3BC9 42 57 3E 47                          db	66,87,62,71,82,109,165,31,232,62,81,129,201,79,31,117,7,134,107,129,222,174,63,83,220,254,16,155,149,31,224,39
182+  3BCD 52 6D A5 1F
182+  3BD1 E8 3E 51 81
182+  3BD5 C9 4F 1F 75
182+  3BD9 07 86 6B 81
182+  3BDD DE AE 3F 53
182+  3BE1 DC FE 10 9B
182+  3BE5 95 1F E0 27
183+  3BE9 5E CA FD 0E                          db	94,202,253,14,213,222,181,219,124,38,11,16,181,217,167,159,1,119,135,171,31,200,189,42,72,74,0,94,75,238,248,235
183+  3BED D5 DE B5 DB
183+  3BF1 7C 26 0B 10
183+  3BF5 B5 D9 A7 9F
183+  3BF9 01 77 87 AB
183+  3BFD 1F C8 BD 2A
183+  3C01 48 4A 00 5E
183+  3C05 4B EE F8 EB
184+  3C09 C0 DE 0E 1F                          db	192,222,14,31,253,167,66,42,235,90,255,127,103,126,16,43,218,95,70,31,123,169,58,139,248,97,165,79,31,203,46,126
184+  3C0D FD A7 42 2A
184+  3C11 EB 5A FF 7F
184+  3C15 67 7E 10 2B
184+  3C19 DA 5F 46 1F
184+  3C1D 7B A9 3A 8B
184+  3C21 F8 61 A5 4F
184+  3C25 1F CB 2E 7E
185+  3C29 26 C9 CD 8A                          db	38,201,205,138,146,204,131,94,153,247,109,31,196,4,47,139,65,228,184,122,31,204,47,31,62,132,17,63,221,136,31,196
185+  3C2D 92 CC 83 5E
185+  3C31 99 F7 6D 1F
185+  3C35 C4 04 2F 8B
185+  3C39 41 E4 B8 7A
185+  3C3D 1F CC 2F 1F
185+  3C41 3E 84 11 3F
185+  3C45 DD 88 1F C4
186+  3C49 46 1F 7D EB                          db	70,31,125,235,89,66,159,78,141,18,163,17,196,176,31,201,141,31,194,174,43,169,248,137,227,62,111,31,32,16,158,31
186+  3C4D 59 42 9F 4E
186+  3C51 8D 12 A3 11
186+  3C55 C4 B0 1F C9
186+  3C59 8D 1F C2 AE
186+  3C5D 2B A9 F8 89
186+  3C61 E3 3E 6F 1F
186+  3C65 20 10 9E 1F
187+  3C69 A3 C9 03 8D                          db	163,201,3,141,217,234,0,138,145,11,168,24,239,154,184,66,154,31,189,56,251,31,164,9,243,16,172,132,238,31,86,38
187+  3C6D D9 EA 00 8A
187+  3C71 91 0B A8 18
187+  3C75 EF 9A B8 42
187+  3C79 9A 1F BD 38
187+  3C7D FB 1F A4 09
187+  3C81 F3 10 AC 84
187+  3C85 EE 1F 56 26
188+  3C89 00 70 AE 8C                          db	0,112,174,140,97,138,12,176,241,225,31,156,0,178,161,252,31,177,225,171,30,178,56,119,31,205,8,110,94,88,209,129
188+  3C8D 61 8A 0C B0
188+  3C91 F1 E1 1F 9C
188+  3C95 00 B2 A1 FC
188+  3C99 1F B1 E1 AB
188+  3C9D 1E B2 38 77
188+  3CA1 1F CD 08 6E
188+  3CA5 5E 58 D1 81
189+  3CA9 9A 00 00 01                          db	154,0,0,1
190+  3CAD              ikari
191+  3CAD 20                                   db	32			; A sprite szélessége byte-okban
192+  3CAE 78                                   db	120			; A sprite magassága
193+  3CAF 6C A3 00 48                          db	108,163,0,72,192,0,0,36,140,152,48,96,96,132,192,148,0,48,36,18,192,132,96,24,9,188,156,0,140,200,200,199
193+  3CB3 C0 00 00 24
193+  3CB7 8C 98 30 60
193+  3CBB 60 84 C0 94
193+  3CBF 00 30 24 12
193+  3CC3 C0 84 60 18
193+  3CC7 09 BC 9C 00
193+  3CCB 8C C8 C8 C7
194+  3CCF 11 4C C4 18                          db	17,76,196,24,0,49,29,192,24,118,2,54,192,204,61,124,124,64,72,196,194,61,132,132,144,144,64,30,144,36,96,36
194+  3CD3 00 31 1D C0
194+  3CD7 18 76 02 36
194+  3CDB C0 CC 3D 7C
194+  3CDF 7C 40 48 C4
194+  3CE3 C2 3D 84 84
194+  3CE7 90 90 40 1E
194+  3CEB 90 24 60 24
195+  3CEF FE 4B 42 43                          db	254,75,66,67,255,63,64,1,62,55,132,76,78,196,0,47,31,56,242,3,31,157,76,124,252,62,131,128,132,128,4,192
195+  3CF3 FF 3F 40 01
195+  3CF7 3E 37 84 4C
195+  3CFB 4E C4 00 2F
195+  3CFF 1F 38 F2 03
195+  3D03 1F 9D 4C 7C
195+  3D07 FC 3E 83 80
195+  3D0B 84 80 04 C0
196+  3D0F CE 7D 60 0B                          db	206,125,96,11,229,65,127,82,252,64,156,130,7,72,24,100,72,127,61,122,59,46,144,48,70,189,31,126,64,196,128,128
196+  3D13 E5 41 7F 52
196+  3D17 FC 40 9C 82
196+  3D1B 07 48 18 64
196+  3D1F 48 7F 3D 7A
196+  3D23 3B 2E 90 30
196+  3D27 46 BD 1F 7E
196+  3D2B 40 C4 80 80
197+  3D2F 84 30 B0 5F                          db	132,48,176,95,140,15,7,211,118,2,36,190,10,5,185,31,25,64,200,124,100,48,38,64,195,31,56,62,221,2,69,173
197+  3D33 8C 0F 07 D3
197+  3D37 76 02 24 BE
197+  3D3B 0A 05 B9 1F
197+  3D3F 19 40 C8 7C
197+  3D43 64 30 26 40
197+  3D47 C3 1F 38 3E
197+  3D4B DD 02 45 AD
198+  3D4F 0F FE 7F 6C                          db	15,254,127,108,67,95,200,36,176,37,177,136,251,31,121,60,211,73,96,43,63,188,89,27,119,72,64,31,103,61,24,72
198+  3D53 43 5F C8 24
198+  3D57 B0 25 B1 88
198+  3D5B FB 1F 79 3C
198+  3D5F D3 49 60 2B
198+  3D63 3F BC 59 1B
198+  3D67 77 48 40 1F
198+  3D6B 67 3D 18 48
199+  3D6F 46 F7 7E 40                          db	70,247,126,64,31,111,63,104,28,34,171,64,127,252,58,54,190,44,135,48,198,159,127,60,29,200,24,76,84,215,112,126
199+  3D73 1F 6F 3F 68
199+  3D77 1C 22 AB 40
199+  3D7B 7F FC 3A 36
199+  3D7F BE 2C 87 30
199+  3D83 C6 9F 7F 3C
199+  3D87 1D C8 18 4C
199+  3D8B 54 D7 70 7E
200+  3D8F 38 E3 44 A9                          db	56,227,68,169,86,60,174,43,253,64,102,104,24,140,36,228,50,221,54,120,7,190,3,120,126,159,120,0,64,132,200,132
200+  3D93 56 3C AE 2B
200+  3D97 FD 40 66 68
200+  3D9B 18 8C 24 E4
200+  3D9F 32 DD 36 78
200+  3DA3 07 BE 03 78
200+  3DA7 7E 9F 78 00
200+  3DAB 40 84 C8 84
201+  3DAF C5 FD 60 87                          db	197,253,96,135,228,17,40,184,72,135,21,6,79,79,255,64,63,99,76,255,238,115,125,200,31,187,117,56,119,176,200,176
201+  3DB3 E4 11 28 B8
201+  3DB7 48 87 15 06
201+  3DBB 4F 4F FF 40
201+  3DBF 3F 63 4C FF
201+  3DC3 EE 73 7D C8
201+  3DC7 1F BB 75 38
201+  3DCB 77 B0 C8 B0
202+  3DCF 80 56 FF 3E                          db	128,86,255,62,128,31,94,43,65,254,93,59,124,75,65,0,67,133,82,31,128,192,108,200,144,120,216,61,167,127,3,66
202+  3DD3 80 1F 5E 2B
202+  3DD7 41 FE 5D 3B
202+  3DDB 7C 4B 41 00
202+  3DDF 43 85 52 1F
202+  3DE3 80 C0 6C C8
202+  3DE7 90 78 D8 3D
202+  3DEB A7 7F 03 42
203+  3DEF 04 D8 2E CB                          db	4,216,46,203,228,208,48,151,127,193,44,129,242,97,144,76,92,118,187,2,72,76,92,252,249,68,65,126,127,0,64,65
203+  3DF3 E4 D0 30 97
203+  3DF7 7F C1 2C 81
203+  3DFB F2 61 90 4C
203+  3DFF 5C 76 BB 02
203+  3E03 48 4C 5C FC
203+  3E07 F9 44 41 7E
203+  3E0B 7F 00 40 41
204+  3E0F F5 E9 32 05                          db	245,233,50,5,96,208,119,244,81,178,245,29,17,82,62,14,129,74,100,161,158,236,126,251,94,196,31,178,79,104,42,103
204+  3E13 60 D0 77 F4
204+  3E17 51 B2 F5 1D
204+  3E1B 11 52 3E 0E
204+  3E1F 81 4A 64 A1
204+  3E23 9E EC 7E FB
204+  3E27 5E C4 1F B2
204+  3E2B 4F 68 2A 67
205+  3E2F B9 3F 0F 81                          db	185,63,15,129,57,160,254,232,50,249,40,154,192,212,252,172,200,182,166,181,31,145,5,191,108,62,63,28,187,44,250,59
205+  3E33 39 A0 FE E8
205+  3E37 32 F9 28 9A
205+  3E3B C0 D4 FC AC
205+  3E3F C8 B6 A6 B5
205+  3E43 1F 91 05 BF
205+  3E47 6C 3E 3F 1C
205+  3E4B BB 2C FA 3B
206+  3E4F 02 C2 0F 1F                          db	2,194,15,31,140,74,179,10,128,51,99,98,191,4,254,161,193,71,254,133,195,126,112,126,63,62,200,12,157,148,226,132
206+  3E53 8C 4A B3 0A
206+  3E57 80 33 63 62
206+  3E5B BF 04 FE A1
206+  3E5F C1 47 FE 85
206+  3E63 C3 7E 70 7E
206+  3E67 3F 3E C8 0C
206+  3E6B 9D 94 E2 84
207+  3E6F 3E 33 C2 7C                          db	62,51,194,124,255,32,0,157,64,88,5,188,85,65,63,24,240,212,209,124,254,17,31,63,214,31,252,194,88,227,209,188
207+  3E73 FF 20 00 9D
207+  3E77 40 58 05 BC
207+  3E7B 55 41 3F 18
207+  3E7F F0 D4 D1 7C
207+  3E83 FE 11 1F 3F
207+  3E87 D6 1F FC C2
207+  3E8B 58 E3 D1 BC
208+  3E8F 74 41 3F 94                          db	116,65,63,148,192,253,53,106,40,62,149,244,142,51,51,31,236,33,193,243,194,191,65,63,4,40,209,108,185,140,104,92
208+  3E93 C0 FD 35 6A
208+  3E97 28 3E 95 F4
208+  3E9B 8E 33 33 1F
208+  3E9F EC 21 C1 F3
208+  3EA3 C2 BF 41 3F
208+  3EA7 04 28 D1 6C
208+  3EAB B9 8C 68 5C
209+  3EAF 43 6C 63 5E                          db	67,108,99,94,99,31,227,11,108,64,235,0,65,255,26,4,25,166,149,149,191,13,182,192,148,63,147,126,31,32,142,55
209+  3EB3 63 1F E3 0B
209+  3EB7 6C 40 EB 00
209+  3EBB 41 FF 1A 04
209+  3EBF 19 A6 95 95
209+  3EC3 BF 0D B6 C0
209+  3EC7 94 3F 93 7E
209+  3ECB 1F 20 8E 37
210+  3ECF 40 61 82 47                          db	64,97,130,71,183,131,72,108,209,209,106,149,243,12,211,73,51,99,108,31,131,239,31,191,12,129,63,65,63,123,241,60
210+  3ED3 B7 83 48 6C
210+  3ED7 D1 D1 6A 95
210+  3EDB F3 0C D3 49
210+  3EDF 33 63 6C 1F
210+  3EE3 83 EF 1F BF
210+  3EE7 0C 81 3F 41
210+  3EEB 3F 7B F1 3C
211+  3EEF 03 E8 84 93                          db	3,232,132,147,53,63,4,193,171,154,126,67,68,58,209,204,29,212,89,181,146,193,208,63,161,47,236,126,2,212,48,194
211+  3EF3 35 3F 04 C1
211+  3EF7 AB 9A 7E 43
211+  3EFB 44 3A D1 CC
211+  3EFF 1D D4 59 B5
211+  3F03 92 C1 D0 3F
211+  3F07 A1 2F EC 7E
211+  3F0B 02 D4 30 C2
212+  3F0F C5 0C AC BF                          db	197,12,172,191,12,132,149,114,140,188,39,153,147,31,73,60,127,139,175,98,2,193,129,124,154,66,72,29,125,252,124,63
212+  3F13 0C 84 95 72
212+  3F17 8C BC 27 99
212+  3F1B 93 1F 49 3C
212+  3F1F 7F 8B AF 62
212+  3F23 02 C1 81 7C
212+  3F27 9A 42 48 1D
212+  3F2B 7D FC 7C 3F
213+  3F2F 00 BC EC E8                          db	0,188,236,232,83,143,71,194,145,145,4,230,7,175,200,15,106,192,172,156,117,79,155,31,160,5,220,172,62,193,68,98
213+  3F33 53 8F 47 C2
213+  3F37 91 91 04 E6
213+  3F3B 07 AF C8 0F
213+  3F3F 6A C0 AC 9C
213+  3F43 75 4F 9B 1F
213+  3F47 A0 05 DC AC
213+  3F4B 3E C1 44 62
214+  3F4F C0 51 5C CA                          db	192,81,92,202,131,104,126,209,252,92,11,136,63,42,188,232,62,250,30,51,248,10,187,16,189,189,172,172,226,18,4,63
214+  3F53 83 68 7E D1
214+  3F57 FC 5C 0B 88
214+  3F5B 3F 2A BC E8
214+  3F5F 3E FA 1E 33
214+  3F63 F8 0A BB 10
214+  3F67 BD BD AC AC
214+  3F6B E2 12 04 3F
215+  3F6F 6C 2C C0 9E                          db	108,44,192,158,61,5,63,196,179,202,26,72,126,76,6,193,122,63,162,50,72,194,92,63,128,5,132,232,200,50,65,183
215+  3F73 3D 05 3F C4
215+  3F77 B3 CA 1A 48
215+  3F7B 7E 4C 06 C1
215+  3F7F 7A 3F A2 32
215+  3F83 48 C2 5C 3F
215+  3F87 80 05 84 E8
215+  3F8B C8 32 41 B7
216+  3F8F C6 9D 3F FE                          db	198,157,63,254,69,161,247,63,56,0,235,6,7,76,203,118,92,246,156,12,189,29,0,186,165,147,66,166,176,192,245,7
216+  3F93 45 A1 F7 3F
216+  3F97 38 00 EB 06
216+  3F9B 07 4C CB 76
216+  3F9F 5C F6 9C 0C
216+  3FA3 BD 1D 00 BA
216+  3FA7 A5 93 42 A6
216+  3FAB B0 C0 F5 07
217+  3FAF 41 9C 22 7F                          db	65,156,34,127,132,44,31,224,84,102,168,138,56,51,176,128,0,124,196,89,124,76,108,212,72,180,30,253,175,164,140,118
217+  3FB3 84 2C 1F E0
217+  3FB7 54 66 A8 8A
217+  3FBB 38 33 B0 80
217+  3FBF 00 7C C4 59
217+  3FC3 7C 4C 6C D4
217+  3FC7 48 B4 1E FD
217+  3FCB AF A4 8C 76
218+  3FCF 34 FD FD B4                          db	52,253,253,180,110,132,77,140,172,129,91,212,3,188,70,148,189,109,225,51,63,144,56,7,120,254,65,185,110,63,92,124
218+  3FD3 6E 84 4D 8C
218+  3FD7 AC 81 5B D4
218+  3FDB 03 BC 46 94
218+  3FDF BD 6D E1 33
218+  3FE3 3F 90 38 07
218+  3FE7 78 FE 41 B9
218+  3FEB 6E 3F 5C 7C
219+  3FEF 85 01 6C 5C                          db	133,1,108,92,234,165,63,190,227,106,63,221,0,188,65,171,135,188,60,101,212,68,172,232,242,63,94,165,226,47,63,92
219+  3FF3 EA A5 3F BE
219+  3FF7 E3 6A 3F DD
219+  3FFB 00 BC 41 AB
219+  3FFF 87 BC 3C 65
219+  4003 D4 44 AC E8
219+  4007 F2 3F 5E A5
219+  400B E2 2F 3F 5C
220+  400F 41 40 F1 00                          db	65,64,241,0,193,83,72,63,236,133,91,63,182,162,233,64,21,52,157,113,52,156,10,40,63,172,198,216,172,86,221,200
220+  4013 C1 53 48 3F
220+  4017 EC 85 5B 3F
220+  401B B6 A2 E9 40
220+  401F 15 34 9D 71
220+  4023 34 9C 0A 28
220+  4027 3F AC C6 D8
220+  402B AC 56 DD C8
221+  402F FE AD 3F 40                          db	254,173,63,64,108,77,227,236,118,64,196,7,24,56,191,63,62,0,122,212,12,195,52,253,32,254,129,189,98,243,232,167
221+  4033 6C 4D E3 EC
221+  4037 76 40 C4 07
221+  403B 18 38 BF 3F
221+  403F 3E 00 7A D4
221+  4043 0C C3 34 FD
221+  4047 20 FE 81 BD
221+  404B 62 F3 E8 A7
222+  404F B4 D3 BB FA                          db	180,211,187,250,58,63,203,131,180,107,132,106,62,72,255,190,28,163,213,117,39,192,7,133,134,106,9,73,252,76,245,8
222+  4053 3A 3F CB 83
222+  4057 B4 6B 84 6A
222+  405B 3E 48 FF BE
222+  405F 1C A3 D5 75
222+  4063 27 C0 07 85
222+  4067 86 6A 09 49
222+  406B FC 4C F5 08
223+  406F BE BE 7F 29                          db	190,190,127,41,162,191,217,118,145,70,140,148,220,60,246,225,190,212,21,159,85,126,7,192,62,85,126,54,143,249,171,5
223+  4073 A2 BF D9 76
223+  4077 91 46 8C 94
223+  407B DC 3C F6 E1
223+  407F BE D4 15 9F
223+  4083 55 7E 07 C0
223+  4087 3E 55 7E 36
223+  408B 8F F9 AB 05
224+  408F 4C BA 6D 08                          db	76,186,109,8,59,212,125,76,125,63,0,221,127,187,53,132,63,153,24,72,140,156,128,1,220,252,200,220,200,172,85,127
224+  4093 3B D4 7D 4C
224+  4097 7D 3F 00 DD
224+  409B 7F BB 35 84
224+  409F 3F 99 18 48
224+  40A3 8C 9C 80 01
224+  40A7 DC FC C8 DC
224+  40AB C8 AC 55 7F
225+  40AF 3C 23 9F 52                          db	60,35,159,82,189,233,177,68,177,238,49,72,98,131,247,74,192,214,57,76,197,73,252,131,190,60,166,31,220,181,42,232
225+  40B3 BD E9 B1 44
225+  40B7 B1 EE 31 48
225+  40BB 62 83 F7 4A
225+  40BF C0 D6 39 4C
225+  40C3 C5 49 FC 83
225+  40C7 BE 3C A6 1F
225+  40CB DC B5 2A E8
226+  40CF B9 0A 3F C5                          db	185,10,63,197,252,148,250,16,13,63,124,238,63,226,235,64,240,12,246,86,238,134,86,128,53,3,99,146,166,30,253,225
226+  40D3 FC 94 FA 10
226+  40D7 0D 3F 7C EE
226+  40DB 3F E2 EB 40
226+  40DF F0 0C F6 56
226+  40E3 EE 86 56 80
226+  40E7 35 03 63 92
226+  40EB A6 1E FD E1
227+  40EF AD 2F 94 4A                          db	173,47,148,74,63,253,188,12,133,118,42,212,139,12,220,133,187,11,63,154,226,172,181,15,92,254,127,53,173,56,73,104
227+  40F3 3F FD BC 0C
227+  40F7 85 76 2A D4
227+  40FB 8B 0C DC 85
227+  40FF BB 0B 3F 9A
227+  4103 E2 AC B5 0F
227+  4107 5C FE 7F 35
227+  410B AD 38 49 68
228+  410F A3 BE 6C 85                          db	163,190,108,133,5,188,149,251,133,255,120,127,112,242,83,62,145,55,203,247,252,18,156,172,197,130,124,44,62,141,157,188
228+  4113 05 BC 95 FB
228+  4117 85 FF 78 7F
228+  411B 70 F2 53 3E
228+  411F 91 37 CB F7
228+  4123 FC 12 9C AC
228+  4127 C5 82 7C 2C
228+  412B 3E 8D 9D BC
229+  412F 70 FE 36 72                          db	112,254,54,114,193,144,195,192,141,49,232,212,192,244,2,6,174,87,127,37,251,208,181,118,10,135,45,117,203,214,132,207
229+  4133 C1 90 C3 C0
229+  4137 8D 31 E8 D4
229+  413B C0 F4 02 06
229+  413F AE 57 7F 25
229+  4143 FB D0 B5 76
229+  4147 0A 87 2D 75
229+  414B CB D6 84 CF
230+  414F F8 96 16 DC                          db	248,150,22,220,124,188,21,64,32,177,84,181,113,248,89,6,131,120,0,252,99,141,65,166,95,63,37,3,216,126,255,229
230+  4153 7C BC 15 40
230+  4157 20 B1 54 B5
230+  415B 71 F8 59 06
230+  415F 83 78 00 FC
230+  4163 63 8D 41 A6
230+  4167 5F 3F 25 03
230+  416B D8 7E FF E5
231+  416F B3 62 B2 C2                          db	179,98,178,194,240,63,188,118,140,0,11,172,242,59,252,186,53,54,177,192,177,179,162,195,86,212,20,189,31,11,133,18
231+  4173 F0 3F BC 76
231+  4177 8C 00 0B AC
231+  417B F2 3B FC BA
231+  417F 35 36 B1 C0
231+  4183 B1 B3 A2 C3
231+  4187 56 D4 14 BD
231+  418B 1F 0B 85 12
232+  418F 4D 3F 7E F7                          db	77,63,126,247,63,50,169,134,52,96,254,58,21,252,232,76,164,172,189,41,169,112,174,183,248,199,245,250,79,63,187,143
232+  4193 3F 32 A9 86
232+  4197 34 60 FE 3A
232+  419B 15 FC E8 4C
232+  419F A4 AC BD 29
232+  41A3 A9 70 AE B7
232+  41A7 F8 C7 F5 FA
232+  41AB 4F 3F BB 8F
233+  41AF 14 81 2E 00                          db	20,129,46,0,130,128,255,124,38,125,59,73,232,97,231,5,11,52,148,61,236,62,191,253,165,78,76,119,63,62,125,98
233+  41B3 82 80 FF 7C
233+  41B7 26 7D 3B 49
233+  41BB E8 61 E7 05
233+  41BF 0B 34 94 3D
233+  41C3 EC 3E BF FD
233+  41C7 A5 4E 4C 77
233+  41CB 3F 3E 7D 62
234+  41CF 82 4C D5 45                          db	130,76,213,69,252,138,217,181,119,64,0,76,192,140,236,41,252,151,148,60,229,58,176,90,64,12,148,77,180,164,255,210
234+  41D3 FC 8A D9 B5
234+  41D7 77 40 00 4C
234+  41DB C0 8C EC 29
234+  41DF FC 97 94 3C
234+  41E3 E5 3A B0 5A
234+  41E7 40 0C 94 4D
234+  41EB B4 A4 FF D2
235+  41EF 59 4C 87 F2                          db	89,76,135,242,55,40,255,229,199,246,64,201,212,146,179,240,191,167,63,200,63,93,62,54,221,30,183,164,140,64,161,199
235+  41F3 37 28 FF E5
235+  41F7 C7 F6 40 C9
235+  41FB D4 92 B3 F0
235+  41FF BF A7 3F C8
235+  4203 3F 5D 3E 36
235+  4207 DD 1E B7 A4
235+  420B 8C 40 A1 C7
236+  420F 93 41 3F C2                          db	147,65,63,194,238,65,251,235,31,22,118,170,53,41,170,192,161,214,116,121,11,200,55,64,99,186,105,54,156,11,201,9
236+  4213 EE 41 FB EB
236+  4217 1F 16 76 AA
236+  421B 35 29 AA C0
236+  421F A1 D6 74 79
236+  4223 0B C8 37 40
236+  4227 63 BA 69 36
236+  422B 9C 0B C9 09
237+  422F AA C0 A2 94                          db	170,192,162,148,60,182,189,126,130,55,34,76,63,103,187,39,126,96,169,116,252,44,76,96,189,126,195,191,63,236,107,248
237+  4233 3C B6 BD 7E
237+  4237 82 37 22 4C
237+  423B 3F 67 BB 27
237+  423F 7E 60 A9 74
237+  4243 FC 2C 4C 60
237+  4247 BD 7E C3 BF
237+  424B 3F EC 6B F8
238+  424F AE 03 F4 3F                          db	174,3,244,63,173,242,63,213,203,188,9,63,182,182,12,11,63,181,233,229,61,0,244,50,235,164,187,242,64,135,206,123
238+  4253 AD F2 3F D5
238+  4257 CB BC 09 3F
238+  425B B6 B6 0C 0B
238+  425F 3F B5 E9 E5
238+  4263 3D 00 F4 32
238+  4267 EB A4 BB F2
238+  426B 40 87 CE 7B
239+  426F 79 6C 0D E2                          db	121,108,13,226,63,93,0,132,116,58,63,172,127,63,195,128,143,157,12,172,220,63,123,131,216,32,190,82,235,208,194,217
239+  4273 3F 5D 00 84
239+  4277 74 3A 3F AC
239+  427B 7F 3F C3 80
239+  427F 8F 9D 0C AC
239+  4283 DC 3F 7B 83
239+  4287 D8 20 BE 52
239+  428B EB D0 C2 D9
240+  428F FA 3D 4C 48                          db	250,61,76,72,139,47,133,82,192,209,126,183,189,172,63,173,188,63,192,61,14,200,49,202,219,135,76,210,131,124,92,40
240+  4293 8B 2F 85 52
240+  4297 C0 D1 7E B7
240+  429B BD AC 3F AD
240+  429F BC 3F C0 3D
240+  42A3 0E C8 31 CA
240+  42A7 DB 87 4C D2
240+  42AB 83 7C 5C 28
241+  42AF C4 EC 92 3F                          db	196,236,146,63,203,194,58,198,199,150,187,162,140,89,63,138,252,236,127,192,117,140,116,220,6,255,109,156,13,232,19,31
241+  42B3 CB C2 3A C6
241+  42B7 C7 96 BB A2
241+  42BB 8C 59 3F 8A
241+  42BF FC EC 7F C0
241+  42C3 75 8C 74 DC
241+  42C7 06 FF 6D 9C
241+  42CB 0D E8 13 1F
242+  42CF 67 8A D8 3E                          db	103,138,216,62,192,231,141,71,191,113,196,142,14,234,183,149,0,92,31,179,48,242,250,63,68,55,232,67,136,170,17,128
242+  42D3 C0 E7 8D 47
242+  42D7 BF 71 C4 8E
242+  42DB 0E EA B7 95
242+  42DF 00 5C 1F B3
242+  42E3 30 F2 FA 3F
242+  42E7 44 37 E8 43
242+  42EB 88 AA 11 80
243+  42EF CD 6A 3F 26                          db	205,106,63,38,123,123,253,4,72,185,63,137,101,211,239,31,3,76,71,15,41,238,226,64,63,118,66,188,174,182,48,195
243+  42F3 7B 7B FD 04
243+  42F7 48 B9 3F 89
243+  42FB 65 D3 EF 1F
243+  42FF 03 4C 47 0F
243+  4303 29 EE E2 40
243+  4307 3F 76 42 BC
243+  430B AE B6 30 C3
244+  430F FF B6 17 D5                          db	255,182,23,213,71,151,187,6,245,79,63,175,152,67,106,123,106,18,106,236,232,30,180,246,191,55,63,67,135,79,63,92
244+  4313 47 97 BB 06
244+  4317 F5 4F 3F AF
244+  431B 98 43 6A 7B
244+  431F 6A 12 6A EC
244+  4323 E8 1E B4 F6
244+  4327 BF 37 3F 43
244+  432B 87 4F 3F 5C
245+  432F 3F E5 A0 E2                          db	63,229,160,226,192,149,46,122,192,142,106,191,63,62,177,12,190,119,184,82,213,71,200,138,218,152,205,63,58,235,58,173
245+  4333 C0 95 2E 7A
245+  4337 C0 8E 6A BF
245+  433B 3F 3E B1 0C
245+  433F BE 77 B8 52
245+  4343 D5 47 C8 8A
245+  4347 DA 98 CD 3F
245+  434B 3A EB 3A AD
246+  434F 3E 46 AD 6E                          db	62,70,173,110,63,103,127,254,11,88,63,128,45,238,125,183,188,32,106,239,193,243,156,209,52,180,207,127,255,64,7,6
246+  4353 3F 67 7F FE
246+  4357 0B 58 3F 80
246+  435B 2D EE 7D B7
246+  435F BC 20 6A EF
246+  4363 C1 F3 9C D1
246+  4367 34 B4 CF 7F
246+  436B FF 40 07 06
247+  436F E9 A1 90 D1                          db	233,161,144,209,63,192,213,98,63,156,178,154,127,251,205,127,114,129,106,97,226,65,96,183,192,46,50,63,253,92,127,200
247+  4373 3F C0 D5 62
247+  4377 3F 9C B2 9A
247+  437B 7F FB CD 7F
247+  437F 72 81 6A 61
247+  4383 E2 41 60 B7
247+  4387 C0 2E 32 3F
247+  438B FD 5C 7F C8
248+  438F 2F 3E DC 4D                          db	47,62,220,77,127,106,143,233,63,143,132,63,109,201,68,179,104,211,127,72,101,127,129,150,135,89,132,169,240,250,66,63
248+  4393 7F 6A 8F E9
248+  4397 3F 8F 84 3F
248+  439B 6D C9 44 B3
248+  439F 68 D3 7F 48
248+  43A3 65 7F 81 96
248+  43A7 87 59 84 A9
248+  43AB F0 FA 42 3F
249+  43AF BC 4C B5 A4                          db	188,76,181,164,127,195,250,191,11,127,241,72,129,223,55,212,2,127,131,195,144,31,198,243,148,63,72,255,26,255,209,254
249+  43B3 7F C3 FA BF
249+  43B7 0B 7F F1 48
249+  43BB 81 DF 37 D4
249+  43BF 02 7F 83 C3
249+  43C3 90 1F C6 F3
249+  43C7 94 3F 48 FF
249+  43CB 1A FF D1 FE
250+  43CF 5E 3F D0 FC                          db	94,63,208,252,60,145,186,233,69,252,79,239,86,63,255,120,128,95,121,18,65,192,81,169,77,187,251,2,1,126,254,119
250+  43D3 3C 91 BA E9
250+  43D7 45 FC 4F EF
250+  43DB 56 3F FF 78
250+  43DF 80 5F 79 12
250+  43E3 41 C0 51 A9
250+  43E7 4D BB FB 02
250+  43EB 01 7E FE 77
251+  43EF AF 70 08 D1                          db	175,112,8,209,58,187,91,192,44,154,27,124,63,172,231,69,52,215,187,63,133,187,250,63,127,210,107,119,140,208,141,63
251+  43F3 3A BB 5B C0
251+  43F7 2C 9A 1B 7C
251+  43FB 3F AC E7 45
251+  43FF 34 D7 BB 3F
251+  4403 85 BB FA 3F
251+  4407 7F D2 6B 77
251+  440B 8C D0 8D 3F
252+  440F DD A8 38 6A                          db	221,168,56,106,182,122,43,54,237,123,247,183,187,88,192,249,253,7,62,166,136,63,221,251,42,56,189,79,0,63,164,243
252+  4413 B6 7A 2B 36
252+  4417 ED 7B F7 B7
252+  441B BB 58 C0 F9
252+  441F FD 07 3E A6
252+  4423 88 3F DD FB
252+  4427 2A 38 BD 4F
252+  442B 00 3F A4 F3
253+  442F BD BD A4 FF                          db	189,189,164,255,190,129,214,63,156,236,186,37,238,174,63,187,111,63,72,192,142,121,123,176,254,162,200,165,127,232,141,230
253+  4433 BE 81 D6 3F
253+  4437 9C EC BA 25
253+  443B EE AE 3F BB
253+  443F 6F 3F 48 C0
253+  4443 8E 79 7B B0
253+  4447 FE A2 C8 A5
253+  444B 7F E8 8D E6
254+  444F 35 AA 0E B3                          db	53,170,14,179,141,246,127,188,251,190,189,94,17,210,215,212,63,238,237,60,182,255,47,3,44,200,118,127,104,119,121,14
254+  4453 8D F6 7F BC
254+  4457 FB BE BD 5E
254+  445B 11 D2 D7 D4
254+  445F 3F EE ED 3C
254+  4463 B6 FF 2F 03
254+  4467 2C C8 76 7F
254+  446B 68 77 79 0E
255+  446F BC D6 3F 24                          db	188,214,63,36,125,213,117,63,157,184,81,63,129,95,193,116,127,186,235,96,147,13,63,24,81,180,217,58,249,210,174,220
255+  4473 7D D5 75 3F
255+  4477 9D B8 51 3F
255+  447B 81 5F C1 74
255+  447F 7F BA EB 60
255+  4483 93 0D 3F 18
255+  4487 51 B4 D9 3A
255+  448B F9 D2 AE DC
256+  448F C8 EB 7F 68                          db	200,235,127,104,252,75,250,85,196,246,63,174,200,194,194,178,164,194,190,163,140,63,100,188,236,226,233,0,127,106,91,131
256+  4493 FC 4B FA 55
256+  4497 C4 F6 3F AE
256+  449B C8 C2 C2 B2
256+  449F A4 C2 BE A3
256+  44A3 8C 3F 64 BC
256+  44A7 EC E2 E9 00
256+  44AB 7F 6A 5B 83
257+  44AF 78 3F 80 50                          db	120,63,128,80,247,219,186,59,76,63,138,19,63,72,70,244,67,151,254,63,26,63,149,184,36,141,234,88,63,246,91,176
257+  44B3 F7 DB BA 3B
257+  44B7 4C 3F 8A 13
257+  44BB 3F 48 46 F4
257+  44BF 43 97 FE 3F
257+  44C3 1A 3F 95 B8
257+  44C7 24 8D EA 58
257+  44CB 3F F6 5B B0
258+  44CF 05 C0 35 6A                          db	5,192,53,106,200,134,253,213,94,25,127,176,192,193,124,56,214,57,92,249,157,4,180,127,124,208,167,148,101,149,62,63
258+  44D3 C8 86 FD D5
258+  44D7 5E 19 7F B0
258+  44DB C0 C1 7C 38
258+  44DF D6 39 5C F9
258+  44E3 9D 04 B4 7F
258+  44E7 7C D0 A7 94
258+  44EB 65 95 3E 3F
259+  44EF 90 33 7F A4                          db	144,51,127,164,186,253,41,181,234,56,107,171,63,55,53,202,147,149,183,106,255,200,127,131,210,48,38,162,188,194,186,166
259+  44F3 BA FD 29 B5
259+  44F7 EA 38 6B AB
259+  44FB 3F 37 35 CA
259+  44FF 93 95 B7 6A
259+  4503 FF C8 7F 83
259+  4507 D2 30 26 A2
259+  450B BC C2 BA A6
260+  450F 88 BE F5 C2                          db	136,190,245,194,245,160,192,236,236,165,145,175,144,203,153,127,206,110,46,96,51,179,123,175,242,54,242,146,136,181,8,192
260+  4513 F5 A0 C0 EC
260+  4517 EC A5 91 AF
260+  451B 90 CB 99 7F
260+  451F CE 6E 2E 60
260+  4523 33 B3 7B AF
260+  4527 F2 36 F2 92
260+  452B 88 B5 08 C0
261+  452F AB D2 3E 85                          db	171,210,62,133,172,191,48,168,247,74,10,108,123,223,115,133,215,127,2,221,247,106,30,179,24,199,151,67,250,60,66,116
261+  4533 AC BF 30 A8
261+  4537 F7 4A 0A 6C
261+  453B 7B DF 73 85
261+  453F D7 7F 02 DD
261+  4543 F7 6A 1E B3
261+  4547 18 C7 97 43
261+  454B FA 3C 42 74
262+  454F A0 B9 C3 AD                          db	160,185,195,173,63,157,207,243,63,226,106,6,249,63,31,162,162,175,173,125,190,134,243,180,19,218,5,209,240,212,20,178
262+  4553 3F 9D CF F3
262+  4557 3F E2 6A 06
262+  455B F9 3F 1F A2
262+  455F A2 AF AD 7D
262+  4563 BE 86 F3 B4
262+  4567 13 DA 05 D1
262+  456B F0 D4 14 B2
263+  456F 3F D3 33 F7                          db	63,211,51,247,18,182,140,195,137,144,144,27,210,110,97,149,63,208,63,45,85,164,180,176,205,72,36,48,24,127,163,143
263+  4573 12 B6 8C C3
263+  4577 89 90 90 1B
263+  457B D2 6E 61 95
263+  457F 3F D0 3F 2D
263+  4583 55 A4 B4 B0
263+  4587 CD 48 24 30
263+  458B 18 7F A3 8F
264+  458F E7 1F 3F B6                          db	231,31,63,182,191,73,140,42,239,255,64,45,127,162,255,24,90,31,107,37,126,108,181,236,211,73,144,48,244,127,48,36
264+  4593 BF 49 8C 2A
264+  4597 EF FF 40 2D
264+  459B 7F A2 FF 18
264+  459F 5A 1F 6B 25
264+  45A3 7E 6C B5 EC
264+  45A7 D3 49 90 30
264+  45AB F4 7F 30 24
265+  45AF B1 9D 59 7E                          db	177,157,89,126,179,236,53,96,178,241,5,36,96,48,104,127,149,165,63,212,236,58,12,58,128,54,193,199,211,64,181,211
265+  45B3 B3 EC 35 60
265+  45B7 B2 F1 05 24
265+  45BB 60 30 68 7F
265+  45BF 95 A5 3F D4
265+  45C3 EC 3A 0C 3A
265+  45C7 80 36 C1 C7
265+  45CB D3 40 B5 D3
266+  45CF F0 12 91 FB                          db	240,18,145,251,6,63,26,211,245,0,200,244,96,53,144,141,5,96,240,112,217,127,192,233,3,48,111,125,197,85,104,63
266+  45D3 06 3F 1A D3
266+  45D7 F5 00 C8 F4
266+  45DB 60 35 90 8D
266+  45DF 05 60 F0 70
266+  45E3 D9 7F C0 E9
266+  45E7 03 30 6F 7D
266+  45EB C5 55 68 3F
267+  45EF 6C 8D 48 12                          db	108,141,72,18,112,176,72,112,127,76,0,8
267+  45F3 70 B0 48 70
267+  45F7 7F 4C 00 08
268+  45FB              renagade
269+  45FB 20                                   db	32			; A sprite szélessége byte-okban
270+  45FC 78                                   db	120			; A sprite magassága
271+  45FD 42 64 C2 01                          db	66,100,194,1,220,252,89,0,147,51,166,1,99,3,205,1,193,66,1,236,25,0,197,24,194,1,81,31,134,0,3,66
271+  4601 DC FC 59 00
271+  4605 93 33 A6 01
271+  4609 63 03 CD 01
271+  460D C1 42 01 EC
271+  4611 19 00 C5 18
271+  4615 C2 01 51 1F
271+  4619 86 00 03 42
272+  461D 01 83 27 83                          db	1,131,39,131,192,0,2,129,67,131,51,35,3,37,0,19,97,31,67,193,212,243,48,0,35,67,67,142,31,2,193,3
272+  4621 C0 00 02 81
272+  4625 43 83 33 23
272+  4629 03 25 00 13
272+  462D 61 1F 43 C1
272+  4631 D4 F3 30 00
272+  4635 23 43 43 8E
272+  4639 1F 02 C1 03
273+  463D 91 93 83 D1                          db	145,147,131,209,114,78,35,195,145,63,192,50,0,17,31,99,99,42,31,99,63,68,243,181,0,19,124,66,1,200,209,98
273+  4641 72 4E 23 C3
273+  4645 91 3F C0 32
273+  4649 00 11 1F 63
273+  464D 63 2A 1F 63
273+  4651 3F 44 F3 B5
273+  4655 00 13 7C 42
273+  4659 01 C8 D1 62
274+  465D 2B 2E D1 1F                          db	43,46,209,31,209,13,35,65,158,38,31,229,26,23,129,79,0,7,30,141,63,175,94,113,95,36,35,19,0,209,7,51
274+  4661 D1 0D 23 41
274+  4665 9E 26 1F E5
274+  4669 1A 17 81 4F
274+  466D 00 07 1E 8D
274+  4671 3F AF 5E 71
274+  4675 5F 24 23 13
274+  4679 00 D1 07 33
275+  467D D2 3F 52 1F                          db	210,63,82,31,63,83,72,0,71,63,221,2,195,66,210,31,115,124,0,7,11,109,63,12,157,124,31,107,63,192,1,69
275+  4681 3F 53 48 00
275+  4685 47 3F DD 02
275+  4689 C3 42 D2 1F
275+  468D 73 7C 00 07
275+  4691 0B 6D 3F 0C
275+  4695 9D 7C 1F 6B
275+  4699 3F C0 01 45
276+  469D 63 23 1F 63                          db	99,35,31,99,216,63,192,220,195,102,63,66,98,223,80,221,127,148,255,55,63,101,223,13,220,63,31,55,63,101,223,13
276+  46A1 D8 3F C0 DC
276+  46A5 C3 66 3F 42
276+  46A9 62 DF 50 DD
276+  46AD 7F 94 FF 37
276+  46B1 3F 65 DF 0D
276+  46B5 DC 3F 1F 37
276+  46B9 3F 65 DF 0D
277+  46BD DC 3F 1F 38                          db	220,63,31,56,63,145,200,225,118,185,134,168,63,31,185,252,137,31,71,147,131,255,99,224,18,185,118,36,31,163,67,141
277+  46C1 3F 91 C8 E1
277+  46C5 76 B9 86 A8
277+  46C9 3F 1F B9 FC
277+  46CD 89 1F 47 93
277+  46D1 83 FF 63 E0
277+  46D5 12 B9 76 24
277+  46D9 1F A3 43 8D
278+  46DD 3F B8 1F C4                          db	63,184,31,196,127,169,110,63,221,89,225,70,35,31,115,100,63,31,67,118,32,191,195,135,131,255,253,36,66,60,255,68
278+  46E1 7F A9 6E 3F
278+  46E5 DD 59 E1 46
278+  46E9 23 1F 73 64
278+  46ED 3F 1F 43 76
278+  46F1 20 BF C3 87
278+  46F5 83 FF FD 24
278+  46F9 42 3C FF 44
279+  46FD C1 C0 39 3F                          db	193,192,57,63,156,159,58,255,77,194,243,99,163,31,52,0,31,194,121,127,99,195,18,0,147,203,221,63,135,81,31,129
279+  4701 9C 9F 3A FF
279+  4705 4D C2 F3 63
279+  4709 A3 1F 34 00
279+  470D 1F C2 79 7F
279+  4711 63 C3 12 00
279+  4715 93 CB DD 3F
279+  4719 87 51 1F 81
280+  471D E8 3F 62 A6                          db	232,63,98,166,159,203,157,63,67,192,154,127,31,66,27,31,194,253,145,63,3,72,31,3,231,223,192,158,129,131,68,179
280+  4721 9F CB 9D 3F
280+  4725 43 C0 9A 7F
280+  4729 1F 42 1B 1F
280+  472D C2 FD 91 3F
280+  4731 03 48 1F 03
280+  4735 E7 DF C0 9E
280+  4739 81 83 44 B3
281+  473D F1 1F 0B BE                          db	241,31,11,190,31,30,97,83,138,95,71,83,41,95,194,127,185,21,31,199,11,161,63,129,193,191,164,94,3,55,31,59
281+  4741 1F 1E 61 53
281+  4745 8A 5F 47 53
281+  4749 29 5F C2 7F
281+  474D B9 15 1F C7
281+  4751 0B A1 3F 81
281+  4755 C1 BF A4 5E
281+  4759 03 37 1F 3B
282+  475D F7 CE 1F C0                          db	247,206,31,192,142,0,71,3,176,95,98,192,139,3,146,35,40,255,49,207,226,2,254,3,126,0,27,31,130,10,127,37
282+  4761 8E 00 47 03
282+  4765 B0 5F 62 C0
282+  4769 8B 03 92 23
282+  476D 28 FF 31 CF
282+  4771 E2 02 FE 03
282+  4775 7E 00 1B 1F
282+  4779 82 0A 7F 25
283+  477D 45 B3 46 7F                          db	69,179,70,127,202,125,203,72,35,168,95,222,93,3,225,63,184,31,35,127,142,255,2,118,252,29,255,1,236,252,232,21
283+  4781 CA 7D CB 48
283+  4785 23 A8 5F DE
283+  4789 5D 03 E1 3F
283+  478D B8 1F 23 7F
283+  4791 8E FF 02 76
283+  4795 FC 1D FF 01
283+  4799 EC FC E8 15
284+  479D 61 51 05 C2                          db	97,81,5,194,31,172,220,232,28,255,1,236,140,252,14,0,255,236,198,236,135,3,255,226,196,252,56,255,26,31,220,60
284+  47A1 1F AC DC E8
284+  47A5 1C FF 01 EC
284+  47A9 8C FC 0E 00
284+  47AD FF EC C6 EC
284+  47B1 87 03 FF E2
284+  47B5 C4 FC 38 FF
284+  47B9 1A 1F DC 3C
285+  47BD FF 23 23 00                          db	255,35,35,0,227,127,206,0,204,204,95,27,0,16,76,76,236,224,31,246,220,185,134,206,30,86,204,127,28,31,192,222
285+  47C1 E3 7F CE 00
285+  47C5 CC CC 5F 1B
285+  47C9 00 10 4C 4C
285+  47CD EC E0 1F F6
285+  47D1 DC B9 86 CE
285+  47D5 1E 56 CC 7F
285+  47D9 1C 1F C0 DE
286+  47DD F6 A3 8B 10                          db	246,163,139,16,35,6,12,66,31,220,246,252,35,44,16,12,12,69,9,156,14,83,89,63,98,31,72,56,31,115,252,230
286+  47E1 23 06 0C 42
286+  47E5 1F DC F6 FC
286+  47E9 23 2C 10 0C
286+  47ED 0C 45 09 9C
286+  47F1 0E 53 59 3F
286+  47F5 62 1F 48 38
286+  47F9 1F 73 FC E6
287+  47FD E4 30 CF 11                          db	228,48,207,17,132,129,95,19,115,179,38,24,31,92,70,76,4,31,70,179,243,102,96,128,145,204,236,161,31,246,249,102
287+  4801 84 81 5F 13
287+  4805 73 B3 26 18
287+  4809 1F 5C 46 4C
287+  480D 04 1F 46 B3
287+  4811 F3 66 60 80
287+  4815 91 CC EC A1
287+  4819 1F F6 F9 66
288+  481D DC 18 3F DC                          db	220,24,63,220,141,31,8,115,185,192,204,196,127,140,111,31,204,232,129,196,49,6,118,95,180,72,9,194,31,132,12,53
288+  4821 8D 1F 08 73
288+  4825 B9 C0 CC C4
288+  4829 7F 8C 6F 1F
288+  482D CC E8 81 C4
288+  4831 31 06 76 5F
288+  4835 B4 48 09 C2
288+  4839 1F 84 0C 35
289+  483D 1F C8 C5 10                          db	31,200,197,16,145,31,6,192,195,191,146,223,12,44,127,70,204,70,196,147,128,140,160,56,177,31,220,204,212,29,31,146
289+  4841 91 1F 06 C0
289+  4845 C3 BF 92 DF
289+  4849 0C 2C 7F 46
289+  484D CC 46 C4 93
289+  4851 80 8C A0 38
289+  4855 B1 1F DC CC
289+  4859 D4 1D 1F 92
290+  485D C0 46 1B 1F                          db	192,70,27,31,8,76,72,140,67,180,31,236,32,95,12,69,19,178,31,140,159,142,31,70,137,4,63,200,220,9,137,103
290+  4861 08 4C 48 8C
290+  4865 43 B4 1F EC
290+  4869 20 5F 0C 45
290+  486D 13 B2 1F 8C
290+  4871 9F 8E 1F 46
290+  4875 89 04 3F C8
290+  4879 DC 09 89 67
291+  487D 1F 0F 16 3F                          db	31,15,22,63,204,209,47,6,130,31,192,196,9,65,63,196,76,129,35,63,220,31,70,169,9,31,98,129,19,69,247,137
291+  4881 CC D1 2F 06
291+  4885 82 1F C0 C4
291+  4889 09 41 3F C4
291+  488D 4C 81 23 3F
291+  4891 DC 1F 46 A9
291+  4895 09 1F 62 81
291+  4899 13 45 F7 89
292+  489D 29 1F CC 46                          db	41,31,204,70,27,31,205,243,233,63,103,76,6,31,6,204,172,238,16,158,63,247,114,52,31,66,7,3,124,31,153,63
292+  48A1 1B 1F CD F3
292+  48A5 E9 3F 67 4C
292+  48A9 06 1F 06 CC
292+  48AD AC EE 10 9E
292+  48B1 3F F7 72 34
292+  48B5 1F 42 07 03
292+  48B9 7C 1F 99 3F
293+  48BD 87 4C B8 76                          db	135,76,184,118,164,209,165,95,3,35,165,7,140,248,36,131,36,31,131,185,120,136,88,147,194,212,31,226,233,63,72,73
293+  48C1 A4 D1 A5 5F
293+  48C5 03 23 A5 07
293+  48C9 8C F8 24 83
293+  48CD 24 1F 83 B9
293+  48D1 78 88 58 93
293+  48D5 C2 D4 1F E2
293+  48D9 E9 3F 48 49
294+  48DD A6 C3 1C 1F                          db	166,195,28,31,192,75,232,63,161,126,196,75,63,0,177,63,226,132,38,12,88,31,192,11,38,12,98,152,47,190,16,98
294+  48E1 C0 4B E8 3F
294+  48E5 A1 7E C4 4B
294+  48E9 3F 00 B1 3F
294+  48ED E2 84 26 0C
294+  48F1 58 1F C0 0B
294+  48F5 26 0C 62 98
294+  48F9 2F BE 10 62
295+  48FD A3 A7 05 13                          db	163,167,5,19,72,25,132,240,31,32,155,31,83,1,9,196,89,132,172,33,11,51,31,19,163,31,18,246,132,140,66,107
295+  4901 48 19 84 F0
295+  4905 1F 20 9B 1F
295+  4909 53 01 09 C4
295+  490D 59 84 AC 21
295+  4911 0B 33 1F 13
295+  4915 A3 1F 12 F6
295+  4919 84 8C 42 6B
296+  491D 8F 5F 73 A9                          db	143,95,115,169,88,249,225,92,30,41,63,181,22,51,199,230,157,64,255,66,66,128,159,147,9,51,179,98,200,33,106,80
296+  4921 58 F9 E1 5C
296+  4925 1E 29 3F B5
296+  4929 16 33 C7 E6
296+  492D 9D 40 FF 42
296+  4931 42 80 9F 93
296+  4935 09 33 B3 62
296+  4939 C8 21 6A 50
297+  493D 1F 03 C6 C4                          db	31,3,198,196,172,74,72,31,163,132,194,30,6,6,232,12,248,31,105,84,63,66,38,222,184,67,224,33,192,169,81,31
297+  4941 AC 4A 48 1F
297+  4945 A3 84 C2 1E
297+  4949 06 06 E8 0C
297+  494D F8 1F 69 54
297+  4951 3F 42 26 DE
297+  4955 B8 43 E0 21
297+  4959 C0 A9 51 1F
298+  495D 62 0C C0 0B                          db	98,12,192,11,76,121,151,208,213,28,232,31,60,131,112,32,66,147,135,144,31,195,125,63,15,161,31,115,176,222,181,135
298+  4961 4C 79 97 D0
298+  4965 D5 1C E8 1F
298+  4969 3C 83 70 20
298+  496D 42 93 87 90
298+  4971 1F C3 7D 3F
298+  4975 0F A1 1F 73
298+  4979 B0 DE B5 87
299+  497D 43 03 A8 1F                          db	67,3,168,31,35,116,63,66,99,135,124,63,223,67,67,168,31,67,120,191,16,19,234,95,226,30,31,67,192,190,126,95
299+  4981 23 74 3F 42
299+  4985 63 87 7C 3F
299+  4989 DF 43 43 A8
299+  498D 1F 43 78 BF
299+  4991 10 13 EA 5F
299+  4995 E2 1E 1F 43
299+  4999 C0 BE 7E 5F
300+  499D 87 D0 E2 1F                          db	135,208,226,31,129,206,158,0,1
300+  49A1 81 CE 9E 00
300+  49A5 01
301+  49A6              quadrillion
302+  49A6 20                                   db	32			; A sprite szélessége byte-okban
303+  49A7 78                                   db	120			; A sprite magassága
304+  49A8 CF 11 CF CE                          db	207,17,207,206,204,132,0,201,195,102,0,31,204,130,212,31,195,114,31,206,11,99,31,144,94,210,242,126,210,30,126,32
304+  49AC CC 84 00 C9
304+  49B0 C3 66 00 1F
304+  49B4 CC 82 D4 1F
304+  49B8 C3 72 1F CE
304+  49BC 0B 63 1F 90
304+  49C0 5E D2 F2 7E
304+  49C4 D2 1E 7E 20
305+  49C8 F0 CE B6 1F                          db	240,206,182,31,60,94,240,204,130,216,31,248,94,46,31,143,94,130,248,31,248,94,46,31,143,94,130,248,31,248,94,46
305+  49CC 3C 5E F0 CC
305+  49D0 82 D8 1F F8
305+  49D4 5E 2E 1F 8F
305+  49D8 5E 82 F8 1F
305+  49DC F8 5E 2E 1F
305+  49E0 8F 5E 82 F8
305+  49E4 1F F8 5E 2E
306+  49E8 1F 8F 5E 85                          db	31,143,94,133,120,31,7,94,31,68,21,198,252,39,94,42,31,255,133,230,31,94,237,31,40,255,42,0,234,30,31,71
306+  49EC 78 1F 07 5E
306+  49F0 1F 44 15 C6
306+  49F4 FC 27 5E 2A
306+  49F8 1F FF 85 E6
306+  49FC 1F 5E ED 1F
306+  4A00 28 FF 2A 00
306+  4A04 EA 1E 1F 47
307+  4A08 C0 C8 5E 1F                          db	192,200,94,31,193,169,31,97,19,36,31,204,45,31,48,149,73,21,6,104,31,195,61,31,65,201,244,31,214,30,255,40
307+  4A0C C1 A9 1F 61
307+  4A10 13 24 1F CC
307+  4A14 2D 1F 30 95
307+  4A18 49 15 06 68
307+  4A1C 1F C3 3D 1F
307+  4A20 41 C9 F4 1F
307+  4A24 D6 1E FF 28
308+  4A28 C8 32 1F 89                          db	200,50,31,137,251,42,20,208,31,210,207,31,29,31,31,26,218,111,194,30,223,20,240,23,69,31,157,250,195,94,124,31
308+  4A2C FB 2A 14 D0
308+  4A30 1F D2 CF 1F
308+  4A34 1D 1F 1F 1A
308+  4A38 DA 6F C2 1E
308+  4A3C DF 14 F0 17
308+  4A40 45 1F 9D FA
308+  4A44 C3 5E 7C 1F
309+  4A48 00 7C 1F 24                          db	0,124,31,36,217,144,91,31,31,94,5,241,31,240,94,93,31,31,94,5,241,31,240,94,93,31,31,94,5,240,31,144
309+  4A4C D9 90 5B 1F
309+  4A50 1F 5E 05 F1
309+  4A54 1F F0 5E 5D
309+  4A58 1F 1F 5E 05
309+  4A5C F1 1F F0 5E
309+  4A60 5D 1F 1F 5E
309+  4A64 05 F0 1F 90
310+  4A68 5E F0 EA C0                          db	94,240,234,192,150,0,23,31,153,30,192,59,231,67,200,7,192,97,7,60,34,0,192,112,143,36,255,48,0,210,7,207
310+  4A6C 96 00 17 1F
310+  4A70 99 1E C0 3B
310+  4A74 E7 43 C8 07
310+  4A78 C0 61 07 3C
310+  4A7C 22 00 C0 70
310+  4A80 8F 24 FF 30
310+  4A84 00 D2 07 CF
311+  4A88 40 00 1B 04                          db	64,0,27,4,31,237,231,11,195,7,240,0,126,255,211,132,143,225,167,6,92,15,69,188,15,7,40,15,117,214,7,186
311+  4A8C 1F ED E7 0B
311+  4A90 C3 07 F0 00
311+  4A94 7E FF D3 84
311+  4A98 8F E1 A7 06
311+  4A9C 5C 0F 45 BC
311+  4AA0 0F 07 28 0F
311+  4AA4 75 D6 07 BA
312+  4AA8 0F 7D D0 07                          db	15,125,208,7,190,103,15,97,166,119,15,7,9,157,15,234,213,1,220,15,7,14,112,15,248,159,65,250,15,213,138,197
312+  4AAC BE 67 0F 61
312+  4AB0 A6 77 0F 07
312+  4AB4 09 9D 0F EA
312+  4AB8 D5 01 DC 0F
312+  4ABC 07 0E 70 0F
312+  4AC0 F8 9F 41 FA
312+  4AC4 0F D5 8A C5
313+  4AC8 EE 0F 07 13                          db	238,15,7,19,15,18,117,213,213,142,175,7,190,132,217,15,96,164,173,144,15,104,161,7,148,60,15,208,18,234,150,175
313+  4ACC 0F 12 75 D5
313+  4AD0 D5 8E AF 07
313+  4AD4 BE 84 D9 0F
313+  4AD8 60 A4 AD 90
313+  4ADC 0F 68 A1 07
313+  4AE0 94 3C 0F D0
313+  4AE4 12 EA 96 AF
314+  4AE8 07 3C 85 21                          db	7,60,133,33,15,226,223,210,11,192,240,15,7,172,15,60,191,109,186,13,117,109,15,190,13,125,9,45,15,117,113,186
314+  4AEC 0F E2 DF D2
314+  4AF0 0B C0 F0 0F
314+  4AF4 07 AC 0F 3C
314+  4AF8 BF 6D BA 0D
314+  4AFC 75 6D 0F BE
314+  4B00 0D 7D 09 2D
314+  4B04 0F 75 71 BA
315+  4B08 AD 07 7D 71                          db	173,7,125,113,190,8,172,15,96,167,90,144,7,104,208,7,148,143,15,47,132,135,189,47,7,199,47,168,15,96,237,23
315+  4B0C BE 08 AC 0F
315+  4B10 60 A7 5A 90
315+  4B14 07 68 D0 07
315+  4B18 94 8F 0F 2F
315+  4B1C 84 87 BD 2F
315+  4B20 07 C7 2F A8
315+  4B24 0F 60 ED 17
316+  4B28 D5 2F 40 ED                          db	213,47,64,237,213,66,148,38,15,48,144,15,96,176,143,100,148,15,104,60,37,15,7,171,191,7,237,255,0,0,128
316+  4B2C D5 42 94 26
316+  4B30 0F 30 90 0F
316+  4B34 60 B0 8F 64
316+  4B38 94 0F 68 3C
316+  4B3C 25 0F 07 AB
316+  4B40 BF 07 ED FF
316+  4B44 00 00 80
317+  4B47              vote
318+  4B47 20                                   db	32			; A sprite szélessége byte-okban
319+  4B48 78                                   db	120			; A sprite magassága
320+  4B49 FF 82 23 00                          db	255,130,35,0,235,51,0,66,215,41,19,99,206,11,51,252,0,61,32,51,146,2,187,119,151,10,187,252,0,60,45,209
320+  4B4D EB 33 00 42
320+  4B51 D7 29 13 63
320+  4B55 CE 0B 33 FC
320+  4B59 00 3D 20 33
320+  4B5D 92 02 BB 77
320+  4B61 97 0A BB FC
320+  4B65 00 3C 2D D1
321+  4B69 13 18 04 00                          db	19,24,4,0,214,252,233,164,31,185,98,64,215,41,5,118,201,27,97,22,31,119,137,5,95,235,93,35,205,0,110,33
321+  4B6D D6 FC E9 A4
321+  4B71 1F B9 62 40
321+  4B75 D7 29 05 76
321+  4B79 C9 1B 61 16
321+  4B7D 1F 77 89 05
321+  4B81 5F EB 5D 23
321+  4B85 CD 00 6E 21
322+  4B89 13 FF 93 60                          db	19,255,147,96,144,235,137,126,184,97,172,31,155,57,60,150,31,214,156,11,195,64,68,99,173,31,119,27,215,17,31,130
322+  4B8D 90 EB 89 7E
322+  4B91 B8 61 AC 1F
322+  4B95 9B 39 3C 96
322+  4B99 1F D6 9C 0B
322+  4B9D C3 40 44 63
322+  4BA1 AD 1F 77 1B
322+  4BA5 D7 11 1F 82
323+  4BA9 80 B9 91 05                          db	128,185,145,5,233,82,95,38,31,187,190,4,99,124,96,174,31,147,33,80,190,248,62,4,192,160,239,56,2,15,176,163
323+  4BAD E9 52 5F 26
323+  4BB1 1F BB BE 04
323+  4BB5 63 7C 60 AE
323+  4BB9 1F 93 21 50
323+  4BBD BE F8 3E 04
323+  4BC1 C0 A0 EF 38
323+  4BC5 02 0F B0 A3
324+  4BC9 4E FC 00 93                          db	78,252,0,147,142,254,13,65,215,22,31,233,71,215,107,31,65,215,195,10,56,45,99,99,62,119,29,31,65,197,96,135
324+  4BCD 8E FE 0D 41
324+  4BD1 D7 16 1F E9
324+  4BD5 47 D7 6B 1F
324+  4BD9 41 D7 C3 0A
324+  4BDD 38 2D 63 63
324+  4BE1 3E 77 1D 1F
324+  4BE5 41 C5 60 87
325+  4BE9 E9 0C E9 76                          db	233,12,233,118,233,185,224,28,51,30,100,31,129,254,120,31,156,124,90,1,96,221,204,155,43,147,4,177,190,115,185,31
325+  4BED E9 B9 E0 1C
325+  4BF1 33 1E 64 1F
325+  4BF5 81 FE 78 1F
325+  4BF9 9C 7C 5A 01
325+  4BFD 60 DD CC 9B
325+  4C01 2B 93 04 B1
325+  4C05 BE 73 B9 1F
326+  4C09 4E 15 DE 13                          db	78,21,222,19,2,191,187,81,158,123,118,31,10,99,21,139,31,237,98,3,215,119,31,65,66,172,187,137,31,69,215,116
326+  4C0D 02 BF BB 51
326+  4C11 9E 7B 76 1F
326+  4C15 0A 63 15 8B
326+  4C19 1F ED 62 03
326+  4C1D D7 77 1F 41
326+  4C21 42 AC BB 89
326+  4C25 1F 45 D7 74
327+  4C29 1F 7A 5F D7                          db	31,122,95,215,148,140,103,31,93,99,15,213,96,31,15,249,67,104,48,119,194,190,176,158,178,65,214,118,254,127,15,83
327+  4C2D 94 8C 67 1F
327+  4C31 5D 63 0F D5
327+  4C35 60 1F 0F F9
327+  4C39 43 68 30 77
327+  4C3D C2 BE B0 9E
327+  4C41 B2 41 D6 76
327+  4C45 FE 7F 0F 53
328+  4C49 36 7F A4 3D                          db	54,127,164,61,101,241,59,252,176,190,194,255,42,31,139,10,195,195,98,185,95,202,185,42,31,130,170,84,242,144,191,4
328+  4C4D 65 F1 3B FC
328+  4C51 B0 BE C2 FF
328+  4C55 2A 1F 8B 0A
328+  4C59 C3 C3 62 B9
328+  4C5D 5F CA B9 2A
328+  4C61 1F 82 AA 54
328+  4C65 F2 90 BF 04
329+  4C69 C3 E9 77 52                          db	195,233,119,82,174,68,76,9,31,214,17,195,99,51,99,245,113,8,142,31,147,88,23,31,94,215,31,184,8,215,233,31
329+  4C6D AE 44 4C 09
329+  4C71 1F D6 11 C3
329+  4C75 63 33 63 F5
329+  4C79 71 08 8E 1F
329+  4C7D 93 58 17 1F
329+  4C81 5E D7 1F B8
329+  4C85 08 D7 E9 1F
330+  4C89 50 D7 93 93                          db	80,215,147,147,145,31,118,50,31,235,121,31,190,9,21,38,241,31,155,66,147,186,31,206,37,195,31,72,215,159,4,187
330+  4C8D 91 1F 76 32
330+  4C91 1F EB 79 1F
330+  4C95 BE 09 15 26
330+  4C99 F1 1F 9B 42
330+  4C9D 93 BA 1F CE
330+  4CA1 25 C3 1F 48
330+  4CA5 D7 9F 04 BB
331+  4CA9 C3 97 56 09                          db	195,151,86,9,103,170,96,228,99,165,31,118,74,31,57,99,142,222,62,23,168,2,222,238,103,52,159,101,72,107,215,48
331+  4CAD 67 AA 60 E4
331+  4CB1 63 A5 1F 76
331+  4CB5 4A 1F 39 63
331+  4CB9 8E DE 3E 17
331+  4CBD A8 02 DE EE
331+  4CC1 67 34 9F 65
331+  4CC5 48 6B D7 30
332+  4CC9 77 1F 77 77                          db	119,31,119,119,72,16,30,255,46,187,23,236,20,251,82,195,92,94,5,88,160,94,71,148,86,246,146,132,159,82,254,225
332+  4CCD 48 10 1E FF
332+  4CD1 2E BB 17 EC
332+  4CD5 14 FB 52 C3
332+  4CD9 5C 5E 05 58
332+  4CDD A0 5E 47 94
332+  4CE1 56 F6 92 84
332+  4CE5 9F 52 FE E1
333+  4CE9 AA 39 87 4F                          db	170,57,135,79,10,26,159,92,48,237,166,130,213,235,18,31,138,7,97,195,196,14,225,31,222,15,33,31,187,181,31,235
333+  4CED 0A 1A 9F 5C
333+  4CF1 30 ED A6 82
333+  4CF5 D5 EB 12 1F
333+  4CF9 8A 07 61 C3
333+  4CFD C4 0E E1 1F
333+  4D01 DE 0F 21 1F
333+  4D05 BB B5 1F EB
334+  4D09 1A C7 D7 17                          db	26,199,215,23,31,74,195,31,119,133,168,31,161,174,31,116,96,187,122,31,187,68,166,255,31,96,10,190,68,187,83,190
334+  4D0D 1F 4A C3 1F
334+  4D11 77 85 A8 1F
334+  4D15 A1 AE 1F 74
334+  4D19 60 BB 7A 1F
334+  4D1D BB 44 A6 FF
334+  4D21 1F 60 0A BE
334+  4D25 44 BB 53 BE
335+  4D29 D0 FA D8 BE                          db	208,250,216,190,203,31,52,96,92,191,187,99,47,159,94,58,89,31,34,89,218,255,105,16,174,31,96,42,125,101,76,235
335+  4D2D CB 1F 34 60
335+  4D31 5C BF BB 63
335+  4D35 2F 9F 5E 3A
335+  4D39 59 1F 22 59
335+  4D3D DA FF 69 10
335+  4D41 AE 1F 60 2A
335+  4D45 7D 65 4C EB
336+  4D49 84 9B C8 1F                          db	132,155,200,31,119,218,94,96,187,94,187,11,31,209,37,235,182,94,77,235,168,94,140,31,176,35,101,94,187,153,37,27
336+  4D4D 77 DA 5E 60
336+  4D51 BB 5E BB 0B
336+  4D55 1F D1 25 EB
336+  4D59 B6 5E 4D EB
336+  4D5D A8 5E 8C 1F
336+  4D61 B0 23 65 5E
336+  4D65 BB 99 25 1B
337+  4D69 60 46 63 D5                          db	96,70,99,213,62,27,52,209,84,31,127,62,125,21,62,81,96,252,0,95,63,31,21,94,112,96,99,31,195,21,122,96
337+  4D6D 3E 1B 34 D1
337+  4D71 54 1F 7F 3E
337+  4D75 7D 15 3E 51
337+  4D79 60 FC 00 5F
337+  4D7D 3F 1F 15 5E
337+  4D81 70 60 63 1F
337+  4D85 C3 15 7A 60
338+  4D89 F8 46 21 1F                          db	248,70,33,31,235,232,31,67,64,184,24,37,31,77,51,0,31,31,31,23,14,242,224,215,29,30,208,101,215,237,31,156
338+  4D8D EB E8 1F 43
338+  4D91 40 B8 18 25
338+  4D95 1F 4D 33 00
338+  4D99 1F 1F 1F 17
338+  4D9D 0E F2 E0 D7
338+  4DA1 1D 1E D0 65
338+  4DA5 D7 ED 1F 9C
339+  4DA9 C9 36 1F D7                          db	201,54,31,215,168,1,111,223,215,195,1,30,130,104,12,142,31,94,90,1,232,132,174,39,31,103,231,50,1,174,20,127
339+  4DAD A8 01 6F DF
339+  4DB1 D7 C3 01 1E
339+  4DB5 82 68 0C 8E
339+  4DB9 1F 5E 5A 01
339+  4DBD E8 84 AE 27
339+  4DC1 1F 67 E7 32
339+  4DC5 01 AE 14 7F
340+  4DC9 86 8A C8 D3                          db	134,138,200,211,172,88,158,1,21,198,8,146,94,198,204,146,0,221,17,20,238,140,37,139,26,31,204,145,21,204,17,31
340+  4DCD AC 58 9E 01
340+  4DD1 15 C6 08 92
340+  4DD5 5E C6 CC 92
340+  4DD9 00 DD 11 14
340+  4DDD EE 8C 25 8B
340+  4DE1 1A 1F CC 91
340+  4DE5 15 CC 11 1F
341+  4DE9 61 DD 34 01                          db	97,221,52,1,76,31,247,70,31,19,1,22,31,93,136,31,137,223,2,134,12,233,0,25,174,197,5,207,31,0,23,31
341+  4DED 4C 1F F7 46
341+  4DF1 1F 13 01 16
341+  4DF5 1F 5D 88 1F
341+  4DF9 89 DF 02 86
341+  4DFD 0C E9 00 19
341+  4E01 AE C5 05 CF
341+  4E05 1F 00 17 1F
342+  4E09 12 AB B0 F0                          db	18,171,176,240,223,69,4,191,38,31,235,135,226,31,130,223,21,31,143,223,12,224,28,238,3,81,190,68,207,96,31,72
342+  4E0D DF 45 04 BF
342+  4E11 26 1F EB 87
342+  4E15 E2 1F 82 DF
342+  4E19 15 1F 8F DF
342+  4E1D 0C E0 1C EE
342+  4E21 03 51 BE 44
342+  4E25 CF 60 1F 48
343+  4E29 03 5D 48 BE                          db	3,93,72,190,167,31,248,62,0,168,95,144,223,154,31,72,67,76,158,236,159,102,0,137,31,67,147,168,31,187,136,29
343+  4E2D A7 1F F8 3E
343+  4E31 00 A8 5F 90
343+  4E35 DF 9A 1F 48
343+  4E39 43 4C 9E EC
343+  4E3D 9F 66 00 89
343+  4E41 1F 43 93 A8
343+  4E45 1F BB 88 1D
344+  4E49 58 BF E1 E0                          db	88,191,225,224,255,139,223,36,215,58,222,112,180,31,32,255,23,0,27,31,13,5,255,148,255,240,94,164,31,240,124,186
344+  4E4D FF 8B DF 24
344+  4E51 D7 3A DE 70
344+  4E55 B4 1F 20 FF
344+  4E59 17 00 1B 1F
344+  4E5D 0D 05 FF 94
344+  4E61 FF F0 5E A4
344+  4E65 1F F0 7C BA
345+  4E69 5F 63 26 7F                          db	95,99,38,127,19,159,26,156,200,132,0,38,124,31,4,37,0,156,174,114,0,140,47,31,172,88,48,31,71,221,68,171
345+  4E6D 13 9F 1A 9C
345+  4E71 C8 84 00 26
345+  4E75 7C 1F 04 25
345+  4E79 00 9C AE 72
345+  4E7D 00 8C 2F 1F
345+  4E81 AC 58 30 1F
345+  4E85 47 DD 44 AB
346+  4E89 7A 00 5D 1F                          db	122,0,93,31,31,129,248,145,97,241,165,134,130,31,140,12,76,76,29,31,225,0,52,31,174,225,250,240,9,10,231,31
346+  4E8D 1F 81 F8 91
346+  4E91 61 F1 A5 86
346+  4E95 82 1F 8C 0C
346+  4E99 4C 4C 1D 1F
346+  4E9D E1 00 34 1F
346+  4EA1 AE E1 FA F0
346+  4EA5 09 0A E7 1F
347+  4EA9 00 03 41 BD                          db	0,3,65,189,192,0,32
347+  4EAD C0 00 20
348+  4EB0              xorgame
349+  4EB0 20                                   db	32			; A sprite szélessége byte-okban
350+  4EB1 78                                   db	120			; A sprite magassága
351+  4EB2 FF 83 D1 00                          db	255,131,209,0,190,254,252,14,32,0,188,96,31,33,188,60,164,0,124,61,31,233,29,1,3,196,0,207,207,11,124,9
351+  4EB6 BE FE FC 0E
351+  4EBA 20 00 BC 60
351+  4EBE 1F 21 BC 3C
351+  4EC2 A4 00 7C 3D
351+  4EC6 1F E9 1D 01
351+  4ECA 03 C4 00 CF
351+  4ECE CF 0B 7C 09
352+  4ED2 01 D3 38 1F                          db	1,211,56,31,83,1,60,31,16,19,163,179,233,127,163,163,14,144,31,115,35,239,31,126,7,176,95,240,31,83,35,115
352+  4ED6 53 01 3C 1F
352+  4EDA 10 13 A3 B3
352+  4EDE E9 7F A3 A3
352+  4EE2 0E 90 1F 73
352+  4EE6 23 EF 1F 7E
352+  4EEA 07 B0 5F F0
352+  4EEE 1F 53 23 73
353+  4EF2 83 D0 FF E0                          db	131,208,255,224,1,23,148,191,79,207,0,163,14,71,224,9,56,211,31,15,232,0,21,7,248,9,126,31,0,241,186,191
353+  4EF6 01 17 94 BF
353+  4EFA 4F CF 00 A3
353+  4EFE 0E 47 E0 09
353+  4F02 38 D3 1F 0F
353+  4F06 E8 00 15 07
353+  4F0A F8 09 7E 1F
353+  4F0E 00 F1 BA BF
354+  4F12 04 E9 BF 44                          db	4,233,191,68,143,64,9,113,193,31,252,191,161,255,170,0,31,67,253,200,31,252,114,0,6,2,31,190,60,15,96,0
354+  4F16 8F 40 09 71
354+  4F1A C1 1F FC BF
354+  4F1E A1 FF AA 00
354+  4F22 1F 43 FD C8
354+  4F26 1F FC 72 00
354+  4F2A 06 02 1F BE
354+  4F2E 3C 0F 60 00
355+  4F32 00 10                                db	0,16
356+  4F34              bomber
357+  4F34 20                                   db	32			; A sprite szélessége byte-okban
358+  4F35 78                                   db	120			; A sprite magassága
359+  4F36 C0 80 E5 00                          db	192,128,229,0,65,213,1,31,145,226,14,8,31,255,255,115,120,31,255,234,134,2,29,132,132,196,255,30,130,15,62,33
359+  4F3A 41 D5 01 1F
359+  4F3E 91 E2 0E 08
359+  4F42 1F FF FF 73
359+  4F46 78 1F FF EA
359+  4F4A 86 02 1D 84
359+  4F4E 84 C4 FF 1E
359+  4F52 82 0F 3E 21
360+  4F56 80 4F 10 00                          db	128,79,16,0,132,21,200,95,196,226,15,38,98,29,111,71,238,26,222,148,60,192,227,136,31,60,104,244,225,129,117,31
360+  4F5A 84 15 C8 5F
360+  4F5E C4 E2 0F 26
360+  4F62 62 1D 6F 47
360+  4F66 EE 1A DE 94
360+  4F6A 3C C0 E3 88
360+  4F6E 1F 3C 68 F4
360+  4F72 E1 81 75 1F
361+  4F76 C0 05 A2 1F                          db	192,5,162,31,148,60,60,29,31,225,0,221,94,31,104,7,156,31,0,30,48,31,104,158,129,114,31,7,68,127,196,60
361+  4F7A 94 3C 3C 1D
361+  4F7E 1F E1 00 DD
361+  4F82 5E 1F 68 07
361+  4F86 9C 1F 00 1E
361+  4F8A 30 1F 68 9E
361+  4F8E 81 72 1F 07
361+  4F92 44 7F C4 3C
362+  4F96 7F 84 87 90                          db	127,132,135,144,31,209,241,31,243,226,14,195,127,194,31,209,226,243,10,8,31,60,252,68,127,243,179,137,96,33,104,212
362+  4F9A 1F D1 F1 1F
362+  4F9E F3 E2 0E C3
362+  4FA2 7F C2 1F D1
362+  4FA6 E2 F3 0A 08
362+  4FAA 1F 3C FC 44
362+  4FAE 7F F3 B3 89
362+  4FB2 60 21 68 D4
363+  4FB6 12 3F F3 F3                          db	18,63,243,243,28,31,84,209,31,66,96,232,17,31,42,145,51,0,118,12,252,0,232,134,70,252,18,31,116,145,2,62
363+  4FBA 1C 1F 54 D1
363+  4FBE 1F 42 60 E8
363+  4FC2 11 1F 2A 91
363+  4FC6 33 00 76 0C
363+  4FCA FC 00 E8 86
363+  4FCE 46 FC 12 1F
363+  4FD2 74 91 02 3E
364+  4FD6 62 86 DC 1F                          db	98,134,220,31,98,3,150,31,217,159,127,2,27,124,144,3,226,209,207,31,90,207,60,31,148,154,43,31,64,222,98,152
364+  4FDA 62 03 96 1F
364+  4FDE D9 9F 7F 02
364+  4FE2 1B 7C 90 03
364+  4FE6 E2 D1 CF 1F
364+  4FEA 5A CF 3C 1F
364+  4FEE 94 9A 2B 1F
364+  4FF2 40 DE 62 98
365+  4FF6 DB 63 EC 7F                          db	219,99,236,127,155,45,63,226,56,251,194,56,63,187,67,132,31,145,98,246,31,155,112,165,31,68,127,66,31,81,127,2
365+  4FFA 9B 2D 3F E2
365+  4FFE 38 FB C2 38
365+  5002 3F BB 43 84
365+  5006 1F 91 62 F6
365+  500A 1F 9B 70 A5
365+  500E 1F 44 7F 42
365+  5012 1F 51 7F 02
366+  5016 1F 7C 3C BC                          db	31,124,60,188,28,31,8,252,188,188,232,252,31,187,81,226,23,127,123,31,127,144,27,226,226,119,31,115,123,220,127,123
366+  501A 1C 1F 08 FC
366+  501E BC BC E8 FC
366+  5022 1F BB 51 E2
366+  5026 17 7F 7B 1F
366+  502A 7F 90 1B E2
366+  502E E2 77 1F 73
366+  5032 7B DC 7F 7B
367+  5036 7D 7F C0 3F                          db	125,127,192,63,247,127,7,240,31,194,127,212,30,31,242,151,28,31,112,212,103,224,127,213,255,255,135,2,63,252,212,212
367+  503A F7 7F 07 F0
367+  503E 1F C2 7F D4
367+  5042 1E 1F F2 97
367+  5046 1C 1F 70 D4
367+  504A 67 E0 7F D5
367+  504E FF FF 87 02
367+  5052 3F FC D4 D4
368+  5056 E8 1B 1F 38                          db	232,27,31,56,234,213,2,110,31,225,7,191,127,126,192,4,252,53,31,240,6,0,221,31,156,127,124,212,11,42,127,60
368+  505A EA D5 02 6E
368+  505E 1F E1 07 BF
368+  5062 7F 7E C0 04
368+  5066 FC 35 1F F0
368+  506A 06 00 DD 1F
368+  506E 9C 7F 7C D4
368+  5072 0B 2A 7F 3C
369+  5076 90 0B 94 FC                          db	144,11,148,252,225,7,123,31,63,246,171,22,31,157,167,120,6,86,127,154,135,60,255,21,104,43,60,63,67,167,113,42
369+  507A E1 07 7B 1F
369+  507E 3F F6 AB 16
369+  5082 1F 9D A7 78
369+  5086 06 56 7F 9A
369+  508A 87 3C FF 15
369+  508E 68 2B 3C 3F
369+  5092 43 A7 71 2A
370+  5096 3C 1F 13 64                          db	60,31,19,100,31,127,127,23,19,31,59,167,89,195,79,127,115,31,221,127,31,141,191,206,7,31,252,39,124,188,31,230
370+  509A 1F 7F 7F 17
370+  509E 13 1F 3B A7
370+  50A2 59 C3 4F 7F
370+  50A6 73 1F DD 7F
370+  50AA 1F 8D BF CE
370+  50AE 07 1F FC 27
370+  50B2 7C BC 1F E6
371+  50B6 03 3F 71 7C                          db	3,63,113,124,3,51,31,219,27,3,188,31,187,127,107,138,127,231,123,3,152,191,35,17,31,213,136,31,232,255,63,15
371+  50BA 03 33 1F DB
371+  50BE 1B 03 BC 1F
371+  50C2 BB 7F 6B 8A
371+  50C6 7F E7 7B 03
371+  50CA 98 BF 23 11
371+  50CE 1F D5 88 1F
371+  50D2 E8 FF 3F 0F
372+  50D6 0B 8B 43 9E                          db	11,139,67,158,107,122,127,175,8,158,127,0,19,63,184,15,200,67,110,31,31,63,132,145,127,234,119,127,15,13,195,31
372+  50DA 6B 7A 7F AF
372+  50DE 08 9E 7F 00
372+  50E2 13 3F B8 0F
372+  50E6 C8 43 6E 1F
372+  50EA 1F 3F 84 91
372+  50EE 7F EA 77 7F
372+  50F2 0F 0D C3 1F
373+  50F6 F0 3F 3F 84                          db	240,63,63,132,191,4,248,191,192,0,32
373+  50FA BF 04 F8 BF
373+  50FE C0 00 20
374+  5101              multitetris
375+  5101 20                                   db	32			; A sprite szélessége byte-okban
376+  5102 78                                   db	120			; A sprite magassága
377+  5103 C0 80 A6 00                          db	192,128,166,0,17,132,72,12,112,2,40,64,31,254,0,195,141,0,65,194,120,31,146,97,48,196,2,3,131,67,209,2
377+  5107 11 84 48 0C
377+  510B 70 02 28 40
377+  510F 1F FE 00 C3
377+  5113 8D 00 41 C2
377+  5117 78 1F 92 61
377+  511B 30 C4 02 03
377+  511F 83 43 D1 02
378+  5123 D8 1F EF 0C                          db	216,31,239,12,210,225,240,2,192,194,79,193,2,7,240,31,42,2,191,48,130,185,88,8,85,127,240,207,121,8,7,240
378+  5127 D2 E1 F0 02
378+  512B C0 C2 4F C1
378+  512F 02 07 F0 1F
378+  5133 2A 02 BF 30
378+  5137 82 B9 58 08
378+  513B 55 7F F0 CF
378+  513F 79 08 07 F0
379+  5143 1F 2E 8A FF                          db	31,46,138,255,48,30,191,20,240,31,192,31,160,191,19,132,185,46,191,124,115,108,2,31,192,31,34,224,191,48,135,129
379+  5147 30 1E BF 14
379+  514B F0 1F C0 1F
379+  514F A0 BF 13 84
379+  5153 B9 2E BF 7C
379+  5157 73 6C 02 1F
379+  515B C0 1F 22 E0
379+  515F BF 30 87 81
380+  5163 BF F0 3C 7F                          db	191,240,60,127,31,192,31,172,255,151,5,195,2,47,255,119,5,8,7,240,31,40,140,255,195,249,11,4,191,64,185,207
380+  5167 1F C0 1F AC
380+  516B FF 97 05 C3
380+  516F 02 2F FF 77
380+  5173 05 08 07 F0
380+  5177 1F 28 8C FF
380+  517B C3 F9 0B 04
380+  517F BF 40 B9 CF
381+  5183 7F 07 F0 1F                          db	127,7,240,31,45,38,255,191,16,234,255,92,127,31,192,31,33,224,191,3,141,0,32,66,192,28,120,0,162,239,74,193
381+  5187 2D 26 FF BF
381+  518B 10 EA FF 5C
381+  518F 7F 1F C0 1F
381+  5193 21 E0 BF 03
381+  5197 8D 00 20 42
381+  519B C0 1C 78 00
381+  519F A2 EF 4A C1
382+  51A3 0B C0 8C 0B                          db	11,192,140,11,135,238,31,152,121,2,101,31,223,68,192,100,11,145,216,47,207,78,159,145,144,11,127,31,7,225,191,132
382+  51A7 87 EE 1F 98
382+  51AB 79 02 65 1F
382+  51AF DF 44 C0 64
382+  51B3 0B 91 D8 2F
382+  51B7 CF 4E 9F 91
382+  51BB 90 0B 7F 1F
382+  51BF 07 E1 BF 84
383+  51C3 A3 50 BF 54                          db	163,80,191,84,9,225,191,127,21,2,8,197,99,92,127,9,215,127,21,193,2,252,31,8,96,191,3,133,2,191,113,255
383+  51C7 09 E1 BF 7F
383+  51CB 15 02 08 C5
383+  51CF 63 5C 7F 09
383+  51D3 D7 7F 15 C1
383+  51D7 02 FC 1F 08
383+  51DB 60 BF 03 85
383+  51DF 02 BF 71 FF
384+  51E3 A8 6F 52 7F                          db	168,111,82,127,113,191,131,248,31,16,131,191,2,134,142,191,72,102,104,255,160,254,31,15,194,191,42,143,82,129,163,11
384+  51E7 71 BF 83 F8
384+  51EB 1F 10 83 BF
384+  51EF 02 86 8E BF
384+  51F3 48 66 68 FF
384+  51F7 A0 FE 1F 0F
384+  51FB C2 BF 2A 8F
384+  51FF 52 81 A3 0B
385+  5203 C0 E0 0B 7B                          db	192,224,11,123,0,128,0,64
385+  5207 00 80 00 40
386+  520B              im
387+  520B 20                                   db	32			; A sprite szélessége byte-okban
388+  520C 78                                   db	120			; A sprite magassága
389+  520D 03 80 AE 00                          db	3,128,174,0,92,252,0,61,30,195,0,220,30,0,61,30,10,162,32,86,144,31,169,239,62,0,14,194,62,124,64,19
389+  5211 5C FC 00 3D
389+  5215 1E C3 00 DC
389+  5219 1E 00 3D 1E
389+  521D 0A A2 20 56
389+  5221 90 1F A9 EF
389+  5225 3E 00 0E C2
389+  5229 3E 7C 40 13
390+  522D 38 40 56 82                          db	56,64,86,130,232,31,244,96,252,30,199,31,240,94,0,90,31,252,131,216,31,71,94,160,8,62,31,67,171,164,31,126
390+  5231 E8 1F F4 60
390+  5235 FC 1E C7 1F
390+  5239 F0 5E 00 5A
390+  523D 1F FC 83 D8
390+  5241 1F 47 5E A0
390+  5245 08 3E 1F 43
390+  5249 AB A4 1F 7E
391+  524D 7F 38 9E 01                          db	127,56,158,1,189,189,171,171,13,132,31,253,127,253,87,54,31,191,16,189,191,191,162,31,124,86,62,252,63,43,134,187
391+  5251 BD BD AB AB
391+  5255 0D 84 1F FD
391+  5259 7F FD 57 36
391+  525D 1F BF 10 BD
391+  5261 BF BF A2 1F
391+  5265 7C 56 3E FC
391+  5269 3F 2B 86 BB
392+  526D 1F 3D 00 86                          db	31,61,0,134,88,31,126,0,127,87,87,66,43,41,31,188,192,190,191,169,193,191,171,30,254,19,176,31,253,190,216,0
392+  5271 58 1F 7E 00
392+  5275 7F 57 57 42
392+  5279 2B 29 1F BC
392+  527D C0 BE BF A9
392+  5281 C1 BF AB 1E
392+  5285 FE 13 B0 1F
392+  5289 FD BE D8 00
393+  528D 57 81 C2 E6                          db	87,129,194,230,31,252,254,0,171,33,191,171,135,63,127,63,36,65,47,31,97,190,145,62,23,23,243,31,2,191,253,25
393+  5291 1F FC FE 00
393+  5295 AB 21 BF AB
393+  5299 87 3F 7F 3F
393+  529D 24 41 2F 1F
393+  52A1 61 BE 91 3E
393+  52A5 17 17 F3 1F
393+  52A9 02 BF FD 19
394+  52AD 3F BE 1F 3E                          db	63,190,31,62,199,190,1,71,23,207,127,96,49,61,43,127,11,80,31,253,15,55,189,169,127,64,143,31,73,126,31,139
394+  52B1 C7 BE 01 47
394+  52B5 17 CF 7F 60
394+  52B9 31 3D 2B 7F
394+  52BD 0B 50 1F FD
394+  52C1 0F 37 BD A9
394+  52C5 7F 40 8F 1F
394+  52C9 49 7E 1F 8B
395+  52CD 06 33 3C 7C                          db	6,51,60,124,191,24,254,63,56,195,128,6,58,51,54,39,254,8,240,191,162,181,89,126,31,51,118,76,4,125,129,35
395+  52D1 BF 18 FE 3F
395+  52D5 38 C3 80 06
395+  52D9 3A 33 36 27
395+  52DD FE 08 F0 BF
395+  52E1 A2 B5 59 7E
395+  52E5 1F 33 76 4C
395+  52E9 04 7D 81 23
396+  52ED CC 7F BB 33                          db	204,127,187,51,182,107,31,30,82,190,102,61,227,126,1,31,127,119,126,119,127,102,61,253,188,30,124,113,169,127,35,255
396+  52F1 B6 6B 1F 1E
396+  52F5 52 BE 66 3D
396+  52F9 E3 7E 01 1F
396+  52FD 7F 77 7E 77
396+  5301 7F 66 3D FD
396+  5305 BC 1E 7C 71
396+  5309 A9 7F 23 FF
397+  530D DB 36 3E BF                          db	219,54,62,191,2,199,249,30,214,9,190,31,171,137,255,44,239,44,125,118,126,214,125,119,30,253,98,124,31,188,169,43
397+  5311 02 C7 F9 1E
397+  5315 D6 09 BE 1F
397+  5319 AB 89 FF 2C
397+  531D EF 2C 7D 76
397+  5321 7E D6 7D 77
397+  5325 1E FD 62 7C
397+  5329 1F BC A9 2B
398+  532D 24 FE BA 76                          db	36,254,186,118,120,193,243,252,119,92,73,34,31,23,37,63,87,239,118,58,59,2,0,94,185,4,13,124,241,31,194,138
398+  5331 78 C1 F3 FC
398+  5335 77 5C 49 22
398+  5339 1F 17 25 3F
398+  533D 57 EF 76 3A
398+  5341 3B 02 00 5E
398+  5345 B9 04 0D 7C
398+  5349 F1 1F C2 8A
399+  534D 9E 5C AD AA                          db	158,92,173,170,126,217,147,185,33,253,93,31,12,191,70,31,85,127,116,51,0,242,164,187,19,163,135,113,63,36,190,19
399+  5351 7E D9 93 B9
399+  5355 21 FD 5D 1F
399+  5359 0C BF 46 1F
399+  535D 55 7F 74 33
399+  5361 00 F2 A4 BB
399+  5365 13 A3 87 71
399+  5369 3F 24 BE 13
400+  536D 1E 56 B9 B9                          db	30,86,185,185,119,58,3,19,35,119,19,145,63,124,189,43,191,143,31,252,118,188,31,241,4,51,187,31,0,60,31,68
400+  5371 77 3A 03 13
400+  5375 23 77 13 91
400+  5379 3F 7C BD 2B
400+  537D BF 8F 1F FC
400+  5381 76 BC 1F F1
400+  5385 04 33 BB 1F
400+  5389 00 3C 1F 44
401+  538D 7D 96 7F 23                          db	125,150,127,35,3,183,88,63,87,255,171,146,127,200,13,124,61,148,190,59,35,51,121,31,211,5,86,241,31,96,32,63
401+  5391 03 B7 58 3F
401+  5395 57 FF AB 92
401+  5399 7F C8 0D 7C
401+  539D 3D 94 BE 3B
401+  53A1 23 33 79 1F
401+  53A5 D3 05 56 F1
401+  53A9 1F 60 20 3F
402+  53AD 13 13 23 13                          db	19,19,35,19,87,118,22,20,250,17,8,31,188,150,192,241,30,128,34,35,124,151,31,124,31,68,189,129,154,31,147,3
402+  53B1 57 76 16 14
402+  53B5 FA 11 08 1F
402+  53B9 BC 96 C0 F1
402+  53BD 1E 80 22 23
402+  53C1 7C 97 1F 7C
402+  53C5 1F 44 BD 81
402+  53C9 9A 1F 93 03
403+  53CD BB 5F 1F 03                          db	187,95,31,3,106,217,33,63,254,129,18,159,31,94,19,58,31,124,232,31,191,209,255,94,31,51,211,75,185,94,157,130
403+  53D1 6A D9 21 3F
403+  53D5 FE 81 12 9F
403+  53D9 1F 5E 13 3A
403+  53DD 1F 7C E8 1F
403+  53E1 BF D1 FF 5E
403+  53E5 1F 33 D3 4B
403+  53E9 B9 5E 9D 82
404+  53ED 42 3D AB FF                          db	66,61,171,255,254,50,31,231,64,94,167,0,125,62,22,63,124,178,31,185,51,37,194,72,41,255,148,63,19,209,31,111
404+  53F1 FE 32 1F E7
404+  53F5 40 5E A7 00
404+  53F9 7D 3E 16 3F
404+  53FD 7C B2 1F B9
404+  5401 33 25 C2 48
404+  5405 29 FF 94 3F
404+  5409 13 D1 1F 6F
405+  540D 81 F0 3E 00                          db	129,240,62,0,209,31,3,255,21,63,150,96,185,124,243,49,46,31,169,29,43,63,64,88,118,146,197,113,31,93,150,63
405+  5411 D1 1F 03 FF
405+  5415 15 3F 96 60
405+  5419 B9 7C F3 31
405+  541D 2E 1F A9 1D
405+  5421 2B 3F 40 58
405+  5425 76 92 C5 71
405+  5429 1F 5D 96 3F
406+  542D 5F BC 8A E0                          db	95,188,138,224,94,62,54,63,209,31,124,43,31,169,62,143,63,158,31,120,93,212,63,188,225,157,60,93,116,63,84,0
406+  5431 5E 3E 36 3F
406+  5435 D1 1F 7C 2B
406+  5439 1F A9 3E 8F
406+  543D 3F 9E 1F 78
406+  5441 5D D4 3F BC
406+  5445 E1 9D 3C 5D
406+  5449 74 3F 54 00
407+  544D D1 5D D1 3F                          db	209,93,209,63,241,93,168,63,86,155,31,153,24,254,63,31,112,158,69,169,35,30,254,231,31,92,133,112,63,194,142,31
407+  5451 F1 5D A8 3F
407+  5455 56 9B 1F 99
407+  5459 18 FE 3F 1F
407+  545D 70 9E 45 A9
407+  5461 23 1E FE E7
407+  5465 1F 5C 85 70
407+  5469 3F C2 8E 1F
408+  546D 8A 3F A1 80                          db	138,63,161,128,8,188,125,255,124,99,63,31,244,30,15,190,51,63,174,96,253,31,24,63,167,225,16,12,12,28,217,63
408+  5471 08 BC 7D FF
408+  5475 7C 63 3F 1F
408+  5479 F4 1E 0F BE
408+  547D 33 3F AE 60
408+  5481 FD 1F 18 3F
408+  5485 A7 E1 10 0C
408+  5489 0C 1C D9 3F
409+  548D FC 2C 1E 1F                          db	252,44,30,31,234,227,22,1,160,44,13,173,31,188,212,98,74,155,209,0,232,104,31,22,210,187,162,125,254,234,28,31
409+  5491 EA E3 16 01
409+  5495 A0 2C 0D AD
409+  5499 1F BC D4 62
409+  549D 4A 9B D1 00
409+  54A1 E8 68 1F 16
409+  54A5 D2 BB A2 7D
409+  54A9 FE EA 1C 1F
410+  54AD 68 FD 00 81                          db	104,253,0,129,190,32,127,50,31,226,210,48,31,22,124,140,31,239,61,63,7,138,225,12,128,162,142,187,82,63,63,63
410+  54B1 BE 20 7F 32
410+  54B5 1F E2 D2 30
410+  54B9 1F 16 7C 8C
410+  54BD 1F EF 3D 3F
410+  54C1 07 8A E1 0C
410+  54C5 80 A2 8E BB
410+  54C9 52 3F 3F 3F
411+  54CD 2A 83 AD 83                          db	42,131,173,131,17,169,62,61,0,192,29,234,68,207,31,127,59,61,254,128,30,63,39,166,211,252,207,127,62,98,160,192
411+  54D1 11 A9 3E 3D
411+  54D5 00 C0 1D EA
411+  54D9 44 CF 1F 7F
411+  54DD 3B 3D FE 80
411+  54E1 1E 3F 27 A6
411+  54E5 D3 FC CF 7F
411+  54E9 3E 62 A0 C0
412+  54ED 85 25 1F 3D                          db	133,37,31,61,178,31,127,149,35,96,94,158,31,107,61,192,34,191,234,62,31,121,60,120,31,164,227,96,162,31,47,60
412+  54F1 B2 1F 7F 95
412+  54F5 23 60 5E 9E
412+  54F9 1F 6B 3D C0
412+  54FD 22 BF EA 3E
412+  5501 1F 79 3C 78
412+  5505 1F A4 E3 60
412+  5509 A2 1F 2F 3C
413+  550D 60 B7 A4 D4                          db	96,183,164,212,106,31,93,38,60,247,31,63,63,96,20,31,172,69,93,82,61,0,191,36,128,36,62,17,12,92,255,136
413+  5511 6A 1F 5D 26
413+  5515 3C F7 1F 3F
413+  5519 3F 60 14 1F
413+  551D AC 45 5D 52
413+  5521 3D 00 BF 24
413+  5525 80 24 3E 11
413+  5529 0C 5C FF 88
414+  552D 00 7F 90 80                          db	0,127,144,128,89,86,30,12,93,26,31,191,138,128,13,30,129,31,31,197,63,6,128,0,213,66,6,72,63,234,164,31
414+  5531 59 56 1E 0C
414+  5535 5D 1A 1F BF
414+  5539 8A 80 0D 1E
414+  553D 81 1F 1F C5
414+  5541 3F 06 80 00
414+  5545 D5 42 06 48
414+  5549 3F EA A4 1F
415+  554D AB 25 3F 12                          db	171,37,63,18,129,36,3,66,126,31,63,63,208,0,212,211,31,63,181,197,106,132,128,46,95,191,169,31,195,128,62,66
415+  5551 81 24 03 42
415+  5555 7E 1F 3F 3F
415+  5559 D0 00 D4 D3
415+  555D 1F 3F B5 C5
415+  5561 6A 84 80 2E
415+  5565 5F BF A9 1F
415+  5569 C3 80 3E 42
416+  556D FF 22 3F 76                          db	255,34,63,118,185,106,112,128,208,62,255,164,63,227,129,161,62,255,73,127,199,129,62,132,171,63,95,129,24,102,31,230
416+  5571 B9 6A 70 80
416+  5575 D0 3E FF A4
416+  5579 3F E3 81 A1
416+  557D 3E FF 49 7F
416+  5581 C7 81 3E 84
416+  5585 AB 3F 5F 81
416+  5589 18 66 1F E6
417+  558D 3F 81 15 42                          db	63,129,21,66,161,15,6,60,127,128,33,139,31,63,152,130,161,81,63,38,25,106,49,130,118,126,31,12,142,63,169,31
417+  5591 A1 0F 06 3C
417+  5595 7F 80 21 8B
417+  5599 1F 3F 98 82
417+  559D A1 51 3F 26
417+  55A1 19 6A 31 82
417+  55A5 76 7E 1F 0C
417+  55A9 8E 3F A9 1F
418+  55AD 8A 82 4C 1F                          db	138,130,76,31,160,33,60,63,128,33,121,31,172,63,128,33,91,63,191,11,128,9,176,31,128,132,194,191,194,128,21,31
418+  55B1 A0 21 3C 3F
418+  55B5 80 21 79 1F
418+  55B9 AC 3F 80 21
418+  55BD 5B 3F BF 0B
418+  55C1 80 09 B0 1F
418+  55C5 80 84 C2 BF
418+  55C9 C2 80 15 1F
419+  55CD 93 3F 82 3A                          db	147,63,130,58,128,7,255,31,9,4,224,0,2
419+  55D1 80 07 FF 1F
419+  55D5 09 04 E0 00
419+  55D9 02
420+  55DA              bomberman
421+  55DA 20                                   db	32			; A sprite szélessége byte-okban
422+  55DB 78                                   db	120			; A sprite magassága
423+  55DC 83 A4 00 C3                          db	131,164,0,195,43,0,101,26,131,67,69,0,197,19,220,12,27,113,62,67,243,29,64,28,62,83,35,211,227,99,64,116
423+  55E0 2B 00 65 1A
423+  55E4 83 43 45 00
423+  55E8 C5 13 DC 0C
423+  55EC 1B 71 3E 43
423+  55F0 F3 1D 40 1C
423+  55F4 3E 53 23 D3
423+  55F8 E3 63 40 74
424+  55FC 3E 2E F3 5C                          db	62,46,243,92,31,62,63,195,130,52,63,195,106,63,235,59,63,4,134,3,191,0,143,63,168,96,232,47,208,63,131,66
424+  5600 1F 3E 3F C3
424+  5604 82 34 3F C3
424+  5608 6A 3F EB 3B
424+  560C 3F 04 86 03
424+  5610 BF 00 8F 3F
424+  5614 A8 60 E8 2F
424+  5618 D0 3F 83 42
425+  561C D1 E3 8E 3F                          db	209,227,142,63,142,79,194,159,54,63,56,93,67,211,225,32,150,111,3,63,227,70,243,132,161,98,44,3,227,63,70,129
425+  5620 8E 4F C2 9F
425+  5624 36 3F 38 5D
425+  5628 43 D3 E1 20
425+  562C 96 6F 03 3F
425+  5630 E3 46 F3 84
425+  5634 A1 62 2C 03
425+  5638 E3 3F 46 81
426+  563C 32 3E 54 3F                          db	50,62,84,63,243,49,62,47,63,64,12,74,31,63,227,131,81,63,3,66,192,130,64,227,226,192,209,243,22,31,0,149
426+  5640 F3 31 3E 2F
426+  5644 3F 40 0C 4A
426+  5648 1F 3F E3 83
426+  564C 51 3F 03 42
426+  5650 C0 82 40 E3
426+  5654 E2 C0 D1 F3
426+  5658 16 1F 00 95
427+  565C 3F 6A C0 C0                          db	63,106,192,192,213,255,234,134,114,31,0,191,255,26,31,206,61,63,127,3,22,31,86,131,63,31,191,82,192,63,227,25
427+  5660 D5 FF EA 86
427+  5664 72 1F 00 BF
427+  5668 FF 1A 1F CE
427+  566C 3D 3F 7F 03
427+  5670 16 1F 56 83
427+  5674 3F 1F BF 52
427+  5678 C0 3F E3 19
428+  567C 1F EE 3F 1F                          db	31,238,63,31,3,141,63,105,6,84,63,255,41,191,144,31,150,169,31,127,127,50,31,252,29,63,66,214,116,31,254,84
428+  5680 03 8D 3F 69
428+  5684 06 54 3F FF
428+  5688 29 BF 90 1F
428+  568C 96 A9 1F 7F
428+  5690 7F 32 1F FC
428+  5694 1D 3F 42 D6
428+  5698 74 1F FE 54
429+  569C 80 77 1F A1                          db	128,119,31,161,62,233,51,191,203,4,227,227,191,56,87,31,0,214,4,211,128,148,157,16,146,31,131,254,31,64,30,200
429+  56A0 3E E9 33 BF
429+  56A4 CB 04 E3 E3
429+  56A8 BF 38 57 1F
429+  56AC 00 D6 04 D3
429+  56B0 80 94 9D 10
429+  56B4 92 1F 83 FE
429+  56B8 1F 40 1E C8
430+  56BC 7E FD BC 4A                          db	126,253,188,74,31,249,126,0,8,31,255,254,71,31,157,17,106,201,210,162,159,192,22,31,48,195,23,161,48,200,208,157
430+  56C0 1F F9 7E 00
430+  56C4 08 1F FF FE
430+  56C8 47 1F 9D 11
430+  56CC 6A C9 D2 A2
430+  56D0 9F C0 16 1F
430+  56D4 30 C3 17 A1
430+  56D8 30 C8 D0 9D
431+  56DC 2D FF C3 5F                          db	45,255,195,95,252,8,209,31,95,9,18,86,95,31,236,132,73,127,195,194,86,127,193,221,36,236,233,36,31,129,181,5
431+  56E0 FC 08 D1 1F
431+  56E4 5F 09 12 56
431+  56E8 5F 1F EC 84
431+  56EC 49 7F C3 C2
431+  56F0 56 7F C1 DD
431+  56F4 24 EC E9 24
431+  56F8 1F 81 B5 05
432+  56FC 42 88 1F C3                          db	66,136,31,195,44,105,73,31,193,18,5,134,132,106,30,57,132,162,67,194,66,209,205,31,131,31,129,180,31,83,31,227
432+  5700 2C 69 49 1F
432+  5704 C1 12 05 86
432+  5708 84 6A 1E 39
432+  570C 84 A2 43 C2
432+  5710 42 D1 CD 1F
432+  5714 83 1F 81 B4
432+  5718 1F 53 1F E3
433+  571C 2C 1F 16 01                          db	44,31,22,1,105,129,193,211,83,214,249,11,59,31,3,31,63,208,31,243,96,31,198,144,254,123,127,95,213,127,163,96
433+  5720 69 81 C1 D3
433+  5724 53 D6 F9 0B
433+  5728 3B 1F 03 1F
433+  572C 3F D0 1F F3
433+  5730 60 1F C6 90
433+  5734 FE 7B 7F 5F
433+  5738 D5 7F A3 60
434+  573C 1B E7 49 D6                          db	27,231,73,214,249,31,63,145,31,163,178,185,233,168,94,148,31,83,32,31,104,197,213,3,60,95,39,31,67,246,16,63
434+  5740 F9 1F 3F 91
434+  5744 1F A3 B2 B9
434+  5748 E9 A8 5E 94
434+  574C 1F 53 20 1F
434+  5750 68 C5 D5 03
434+  5754 3C 5F 27 1F
434+  5758 43 F6 10 3F
435+  575C C1 0C A3 03                          db	193,12,163,3,243,247,167,99,203,153,27,159,95,4,206,195,19,31,126,3,99,95,223,47,227,63,37,227,31,172,94,96
435+  5760 F3 F7 A7 63
435+  5764 CB 99 1B 9F
435+  5768 5F 04 CE C3
435+  576C 13 1F 7E 03
435+  5770 63 5F DF 2F
435+  5774 E3 3F 25 E3
435+  5778 1F AC 5E 60
436+  577C C0 C2 F4 03                          db	192,194,244,3,191,124,211,4,0,53,31,204,162,125,31,219,94,96,192,142,182,163,43,211,240,2,138,227,105,184,31,252
436+  5780 BF 7C D3 04
436+  5784 00 35 1F CC
436+  5788 A2 7D 1F DB
436+  578C 5E 60 C0 8E
436+  5790 B6 A3 2B D3
436+  5794 F0 02 8A E3
436+  5798 69 B8 1F FC
437+  579C F5 7D 9F 61                          db	245,125,159,97,129,218,105,158,241,11,10,199,31,127,106,31,71,128,135,158,63,23,26,29,31,81,11,113,88,197,95,66
437+  57A0 81 DA 69 9E
437+  57A4 F1 0B 0A C7
437+  57A8 1F 7F 6A 1F
437+  57AC 47 80 87 9E
437+  57B0 3F 17 1A 1D
437+  57B4 1F 51 0B 71
437+  57B8 58 C5 5F 42
438+  57BC 81 9A C4 E3                          db	129,154,196,227,22,184,66,193,131,206,224,225,63,136,31,126,63,198,131,27,63,8,148,252,252,104,103,63,6,110,212,5
438+  57C0 16 B8 42 C1
438+  57C4 83 CE E0 E1
438+  57C8 3F 88 1F 7E
438+  57CC 3F C6 83 1B
438+  57D0 3F 08 94 FC
438+  57D4 FC 68 67 3F
438+  57D8 06 6E D4 05
439+  57DC E8 07 0E 44                          db	232,7,14,68,31,213,253,66,39,31,41,159,119,38,63,6,139,31,66,94,164,193,96,22,191,41,202,130,25,31,238,26
439+  57E0 1F D5 FD 42
439+  57E4 27 1F 29 9F
439+  57E8 77 26 3F 06
439+  57EC 8B 1F 42 5E
439+  57F0 A4 C1 60 16
439+  57F4 BF 29 CA 82
439+  57F8 19 1F EE 1A
440+  57FC 04 12 FA 5B                          db	4,18,250,91,94,157,31,227,9,181,186,150,117,194,195,31,195,66,193,123,155,36,5,136,36,192,107,191,218,66,4,129
440+  5800 5E 9D 1F E3
440+  5804 09 B5 BA 96
440+  5808 75 C2 C3 1F
440+  580C C3 42 C1 7B
440+  5810 9B 24 05 88
440+  5814 24 C0 6B BF
440+  5818 DA 42 04 81
441+  581C 3E 7F 3A C0                          db	62,127,58,192,109,153,33,101,30,97,45,129,34,193,183,22,30,51,48,106,3,96,144,161,242,144,58,20,31,24,48,52
441+  5820 6D 99 21 65
441+  5824 1E 61 2D 81
441+  5828 22 C1 B7 16
441+  582C 1E 33 30 6A
441+  5830 03 60 90 A1
441+  5834 F2 90 3A 14
441+  5838 1F 18 30 34
442+  583C 3C E4 4A 03                          db	60,228,74,3,49,132,131,30,22,48,58,33,91,54,58,48,3,18,41,97,132,138,62,62,48,31,41,48,53,31,53,194
442+  5840 31 84 83 1E
442+  5844 16 30 3A 21
442+  5848 5B 36 3A 30
442+  584C 03 12 29 61
442+  5850 84 8A 3E 3E
442+  5854 30 1F 29 30
442+  5858 35 1F 35 C2
443+  585C 0B 21 1E 38                          db	11,33,30,56,48,48,97,84,31,63,178,168,11,247,64,151,24,183,52,96,149,240,68,159,92,148,11,112,31,18,56,62
443+  5860 30 30 61 54
443+  5864 1F 3F B2 A8
443+  5868 0B F7 40 97
443+  586C 18 B7 34 60
443+  5870 95 F0 44 9F
443+  5874 5C 94 0B 70
443+  5878 1F 12 38 3E
444+  587C D8 7A 38 9B                          db	216,122,56,155,75,3,72,11,105,235,94,0,187,127,159,11,11,142,194,0,52,52,58,53,87,52,31,7,173,3,22,11
444+  5880 4B 03 48 0B
444+  5884 69 EB 5E 00
444+  5888 BB 7F 9F 0B
444+  588C 0B 8E C2 00
444+  5890 34 34 3A 35
444+  5894 57 34 1F 07
444+  5898 AD 03 16 0B
445+  589C 34 18 1E 92                          db	52,24,30,146,201,48,52,56,193,159,146,124,11,12,99,94,61,16,232,3,159,49,7,67,243,149,113,11,170,31,53,16
445+  58A0 C9 30 34 38
445+  58A4 C1 9F 92 7C
445+  58A8 0B 0C 63 5E
445+  58AC 3D 10 E8 03
445+  58B0 9F 31 07 43
445+  58B4 F3 95 71 0B
445+  58B8 AA 1F 35 10
446+  58BC AC 03 9B 25                          db	172,3,155,37,3,184,11,192,128,253,79,18,3,144,147,190,144,95,239,76,11,3,139,126,240,16,209,29,96,104,106,27
446+  58C0 03 B8 0B C0
446+  58C4 80 FD 4F 12
446+  58C8 03 90 93 BE
446+  58CC 90 5F EF 4C
446+  58D0 0B 03 8B 7E
446+  58D4 F0 10 D1 1D
446+  58D8 60 68 6A 1B
447+  58DC D5 03 0B C7                          db	213,3,11,199,15,0,158,58,144,144,82,129,63,148,187,63,11,15,138,128,1,150,58,52,148,62,106,96,158,111,96,4
447+  58E0 0F 00 9E 3A
447+  58E4 90 90 52 81
447+  58E8 3F 94 BB 3F
447+  58EC 0B 0F 8A 80
447+  58F0 01 96 3A 34
447+  58F4 94 3E 6A 60
447+  58F8 9E 6F 60 04
448+  58FC EB 0A 1C A8                          db	235,10,28,168,3,167,31,146,14,156,61,148,144,193,120,63,131,31,67,192,62,15,197,3,214,31,124,57,96,164,187,234
448+  5900 03 A7 1F 92
448+  5904 0E 9C 3D 94
448+  5908 90 C1 78 3F
448+  590C 83 1F 43 C0
448+  5910 3E 0F C5 03
448+  5914 D6 1F 7C 39
448+  5918 60 A4 BB EA
449+  591C 07 DA 14 16                          db	7,218,20,22,94,60,139,31,73,150,62,75,160,117,63,0,113,62,143,95,62,60,127,110,67,31,67,6,145,191,131,70
449+  5920 5E 3C 8B 1F
449+  5924 49 96 3E 4B
449+  5928 A0 75 3F 00
449+  592C 71 3E 8F 5F
449+  5930 3E 3C 7F 6E
449+  5934 43 1F 43 06
449+  5938 91 BF 83 46
450+  593C 8B 35 8D 5F                          db	139,53,141,95,252,55,0,217,181,159,176,196,236,15,161,145,56,125,31,60,123,64,63,135,86,7,31,227,249,31,64,121
450+  5940 FC 37 00 D9
450+  5944 B5 9F B0 C4
450+  5948 EC 0F A1 91
450+  594C 38 7D 1F 3C
450+  5950 7B 40 3F 87
450+  5954 56 07 1F E3
450+  5958 F9 1F 40 79
451+  595C 3F 51 42 DF                          db	63,81,66,223,239,127,31,7,83,192,63,22,126,205,131,193,23,63,126,0,24,166,212,6,129,148,95,48,193,137,63,26
451+  5960 EF 7F 1F 07
451+  5964 53 C0 3F 16
451+  5968 7E CD 83 C1
451+  596C 17 3F 7E 00
451+  5970 18 A6 D4 06
451+  5974 81 94 5F 30
451+  5978 C1 89 3F 1A
452+  597C C2 95 94 3E                          db	194,149,148,62,149,174,160,216,7,192,159,40,144,255,146,58,114,25,11,88,31,253,120,3,250,72,7,129,89,66,255,88
452+  5980 95 AE A0 D8
452+  5984 07 C0 9F 28
452+  5988 90 FF 92 3A
452+  598C 72 19 0B 58
452+  5990 1F FD 78 03
452+  5994 FA 48 07 81
452+  5998 59 42 FF 58
453+  599C 8E 4F 3F BD                          db	142,79,63,189,48,149,120,3,192,221,3,7,81,6,226,99,173,19,63,82,119,205,65,3,33,139,201,24,201,63,64,52
453+  59A0 30 95 78 03
453+  59A4 C0 DD 03 07
453+  59A8 51 06 E2 63
453+  59AC AD 13 3F 52
453+  59B0 77 CD 41 03
453+  59B4 21 8B C9 18
453+  59B8 C9 3F 40 34
454+  59BC 39 F6 03 FF                          db	57,246,3,255,73,129,57,62,63,48,64,247,84,106,54,69,3,23,255,141,113,108,63,194,254,56,53,154,3,255,44,197
454+  59C0 49 81 39 3E
454+  59C4 3F 30 40 F7
454+  59C8 54 6A 36 45
454+  59CC 03 17 FF 8D
454+  59D0 71 6C 3F C2
454+  59D4 FE 38 35 9A
454+  59D8 03 FF 2C C5
455+  59DC 22 EC 3F F8                          db	34,236,63,248,57,57,232,3,255,147,96,115,126,63,132,128,94,65,32,192,155,126,63,152,128,17,192,65,191,151,251,62
455+  59E0 39 39 E8 03
455+  59E4 FF 93 60 73
455+  59E8 7E 3F 84 80
455+  59EC 5E 41 20 C0
455+  59F0 9B 7E 3F 98
455+  59F4 80 11 C0 41
455+  59F8 BF 97 FB 3E
456+  59FC 7D 7E 1A DD                          db	125,126,26,221,63,64,204,128,100,62,151,94,27,115,35,76,193,204,127,63,189,57,11,248,62,63,203,64,0,160,187,137
456+  5A00 3F 40 CC 80
456+  5A04 64 3E 97 5E
456+  5A08 1B 73 23 4C
456+  5A0C C1 CC 7F 3F
456+  5A10 BD 39 0B F8
456+  5A14 3E 3F CB 40
456+  5A18 00 A0 BB 89
457+  5A1C 3E 40 43 00                          db	62,64,67,0,32
457+  5A20 20
458+  5A21              nebulus
459+  5A21 20                                   db	32			; A sprite szélessége byte-okban
460+  5A22 78                                   db	120			; A sprite magassága
461+  5A23 CC 83 11 00                          db	204,131,17,0,221,255,255,243,4,3,220,14,10,96,8,255,243,247,4,238,221,251,243,238,209,19,21,0,55,38,33,26
461+  5A27 DD FF FF F3
461+  5A2B 04 03 DC 0E
461+  5A2F 0A 60 08 FF
461+  5A33 F3 F7 04 EE
461+  5A37 DD FB F3 EE
461+  5A3B D1 13 15 00
461+  5A3F 37 26 21 1A
462+  5A43 F3 F4 07 03                          db	243,244,7,3,247,137,31,243,235,0,27,18,116,251,57,31,226,19,192,243,251,190,31,192,0,13,43,0,89,41,255,251
462+  5A47 F7 89 1F F3
462+  5A4B EB 00 1B 12
462+  5A4F 74 FB 39 1F
462+  5A53 E2 13 C0 F3
462+  5A57 FB BE 1F C0
462+  5A5B 00 0D 2B 00
462+  5A5F 59 29 FF FB
463+  5A63 12 FB A7 05                          db	18,251,167,5,243,31,154,0,174,17,31,169,71,12,247,169,76,230,123,238,20,31,213,147,116,37,213,3,234,31,200,6
463+  5A67 F3 1F 9A 00
463+  5A6B AE 11 1F A9
463+  5A6F 47 0C F7 A9
463+  5A73 4C E6 7B EE
463+  5A77 14 1F D5 93
463+  5A7B 74 25 D5 03
463+  5A7F EA 1F C8 06
464+  5A83 93 11 5D 1F                          db	147,17,93,31,64,133,31,221,243,209,243,63,31,209,40,0,35,226,64,191,31,65,16,31,118,226,27,11,144,22,48,48
464+  5A87 40 85 1F DD
464+  5A8B F3 D1 F3 3F
464+  5A8F 1F D1 28 00
464+  5A93 23 E2 40 BF
464+  5A97 1F 41 10 1F
464+  5A9B 76 E2 1B 0B
464+  5A9F 90 16 30 30
465+  5AA3 75 6E C0 8C                          db	117,110,192,140,32,215,48,221,125,18,31,247,141,31,160,144,136,31,66,144,43,31,192,31,231,125,31,161,136,142,31,124
465+  5AA7 20 D7 30 DD
465+  5AAB 7D 12 1F F7
465+  5AAF 8D 1F A0 90
465+  5AB3 88 1F 42 90
465+  5AB7 2B 1F C0 1F
465+  5ABB E7 7D 1F A1
465+  5ABF 88 8E 1F 7C
466+  5AC3 C0 1F 20 EA                          db	192,31,32,234,95,48,9,227,2,105,96,31,221,34,9,116,151,31,96,8,5,168,31,255,145,95,184,48,192,4,88,31
466+  5AC7 5F 30 09 E3
466+  5ACB 02 69 60 1F
466+  5ACF DD 22 09 74
466+  5AD3 97 1F 60 08
466+  5AD7 05 A8 1F FF
466+  5ADB 91 5F B8 30
466+  5ADF C0 04 58 1F
467+  5AE3 AE 47 02 C0                          db	174,71,2,192,221,36,159,36,16,141,32,78,255,15,48,23,116,252,116,127,101,132,25,96,113,13,209,31,193,228,29,95
467+  5AE7 DD 24 9F 24
467+  5AEB 10 8D 20 4E
467+  5AEF FF 0F 30 17
467+  5AF3 74 FC 74 7F
467+  5AF7 65 84 19 60
467+  5AFB 71 0D D1 1F
467+  5AFF C1 E4 1D 5F
468+  5B03 70 00 FA 1F                          db	112,0,250,31,255,24,31,66,3,206,32,144,127,82,31,3,87,20,32,82,116,31,96,78,31,0,19,32,156,223,109,31
468+  5B07 FF 18 1F 42
468+  5B0B 03 CE 20 90
468+  5B0F 7F 52 1F 03
468+  5B13 57 14 20 52
468+  5B17 74 1F 60 4E
468+  5B1B 1F 00 13 20
468+  5B1F 9C DF 6D 1F
469+  5B23 57 3C 63 55                          db	87,60,99,85,36,20,223,209,95,10,32,234,255,62,32,61,31,131,204,0,98,213,180,223,71,234,2,191,67,95,0,65
469+  5B27 24 14 DF D1
469+  5B2B 5F 0A 20 EA
469+  5B2F FF 3E 20 3D
469+  5B33 1F 83 CC 00
469+  5B37 62 D5 B4 DF
469+  5B3B 47 EA 02 BF
469+  5B3F 43 5F 00 41
470+  5B43 3E 91 FF 13                          db	62,145,255,19,247,204,127,191,41,131,174,0,62,146,211,227,64,38,31,63,96,67,131,213,232,30,254,120,31,219,95,59
470+  5B47 F7 CC 7F BF
470+  5B4B 29 83 AE 00
470+  5B4F 3E 92 D3 E3
470+  5B53 40 26 1F 3F
470+  5B57 60 43 83 D5
470+  5B5B E8 1E FE 78
470+  5B5F 1F DB 5F 3B
471+  5B63 28 C3 C3 04                          db	40,195,195,4,194,251,189,90,32,247,124,4,108,119,127,0,201,31,57,243,31,29,79,0,63,221,62,0,51,31,196,188
471+  5B67 C2 FB BD 5A
471+  5B6B 20 F7 7C 04
471+  5B6F 6C 77 7F 00
471+  5B73 C9 1F 39 F3
471+  5B77 1F 1D 4F 00
471+  5B7B 3F DD 3E 00
471+  5B7F 33 1F C4 BC
472+  5B83 38 C8 D5 60                          db	56,200,213,96,135,144,139,63,96,195,24,192,200,255,196,213,120,192,38,203,34,171,102,34,61,240,0,158,104,196,185,234
472+  5B87 87 90 8B 3F
472+  5B8B 60 C3 18 C0
472+  5B8F C8 FF C4 D5
472+  5B93 78 C0 26 CB
472+  5B97 22 AB 66 22
472+  5B9B 3D F0 00 9E
472+  5B9F 68 C4 B9 EA
473+  5BA3 F8 00 1F 91                          db	248,0,31,145,242,169,0,43,59,2,31,97,226,31,213,186,96,234,165,39,129,32,238,2,37,122,62,31,164,249,145,31
473+  5BA7 F2 A9 00 2B
473+  5BAB 3B 02 1F 61
473+  5BAF E2 1F D5 BA
473+  5BB3 60 EA A5 27
473+  5BB7 81 20 EE 02
473+  5BBB 25 7A 3E 1F
473+  5BBF A4 F9 91 1F
474+  5BC3 C1 84 EC D2                          db	193,132,236,210,0,93,31,63,132,158,139,31,48,63,177,242,158,32,125,62,31,196,81,248,78,31,192,63,251,115,27,69
474+  5BC7 00 5D 1F 3F
474+  5BCB 84 9E 8B 1F
474+  5BCF 30 3F B1 F2
474+  5BD3 9E 20 7D 3E
474+  5BD7 1F C4 51 F8
474+  5BDB 4E 1F C0 3F
474+  5BDF FB 73 1B 45
475+  5BE3 E2 62 F0 1F                          db	226,98,240,31,191,177,147,187,63,176,25,101,69,29,75,211,31,157,145,15,242,63,115,17,12,245,235,63,227,31,80,144
475+  5BE7 BF B1 93 BB
475+  5BEB 3F B0 19 65
475+  5BEF 45 1D 4B D3
475+  5BF3 1F 9D 91 0F
475+  5BF7 F2 3F 73 11
475+  5BFB 0C F5 EB 3F
475+  5BFF E3 1F 50 90
476+  5C03 D4 B8 90 ED                          db	212,184,144,237,93,234,16,220,62,4,85,95,81,62,149,151,96,209,31,115,64,196,4,250,31,32,183,207,31,45,0,243
476+  5C07 5D EA 10 DC
476+  5C0B 3E 04 55 5F
476+  5C0F 51 3E 95 97
476+  5C13 60 D1 1F 73
476+  5C17 40 C4 04 FA
476+  5C1B 1F 20 B7 CF
476+  5C1F 1F 2D 00 F3
477+  5C23 3F 7D 28 1F                          db	63,125,40,31,96,179,163,165,31,74,107,227,0,192,63,144,249,161,12,31,132,2,211,211,194,234,75,127,165,68,213,38
477+  5C27 60 B3 A3 A5
477+  5C2B 1F 4A 6B E3
477+  5C2F 00 C0 3F 90
477+  5C33 F9 A1 0C 1F
477+  5C37 84 02 D3 D3
477+  5C3B C2 EA 4B 7F
477+  5C3F A5 44 D5 26
478+  5C43 3F E2 58 EA                          db	63,226,88,234,191,20,96,215,32,193,132,89,63,83,63,215,194,106,31,195,31,191,63,80,0,137,219,28,134,115,63,215
478+  5C47 BF 14 60 D7
478+  5C4B 20 C1 84 59
478+  5C4F 3F 53 3F D7
478+  5C53 C2 6A 1F C3
478+  5C57 1F BF 3F 50
478+  5C5B 00 89 DB 1C
478+  5C5F 86 73 3F D7
479+  5C63 E2 1F CB 7B                          db	226,31,203,123,195,215,31,88,235,144,255,0,10,3,16,64,193,144,223,108,13,234,194,187,6,66,226,0,11,64,67,192
479+  5C67 C3 D7 1F 58
479+  5C6B EB 90 FF 00
479+  5C6F 0A 03 10 40
479+  5C73 C1 90 DF 6C
479+  5C77 0D EA C2 BB
479+  5C7B 06 42 E2 00
479+  5C7F 0B 40 43 C0
480+  5C83 40 AD 38 40                          db	64,173,56,64,192,130,203,193,42,125,237,35,190,52,64,194,136,184,192,160,204,138,30,254,97,1,63,70,64,235,133,12
480+  5C87 C0 82 CB C1
480+  5C8B 2A 7D ED 23
480+  5C8F BE 34 40 C2
480+  5C93 88 B8 C0 A0
480+  5C97 CC 8A 1E FE
480+  5C9B 61 01 3F 46
480+  5C9F 40 EB 85 0C
481+  5CA3 C0 3A E3 F7                          db	192,58,227,247,248,66,63,219,0,202,47,64,23,86,251,114,124,171,69,3,202,63,162,20,129,221,32,135,189,30,101,211
481+  5CA7 F8 42 3F DB
481+  5CAB 00 CA 2F 40
481+  5CAF 17 56 FB 72
481+  5CB3 7C AB 45 03
481+  5CB7 CA 3F A2 14
481+  5CBB 81 DD 20 87
481+  5CBF BD 1E 65 D3
482+  5CC3 1B 7E 7A 41                          db	27,126,122,65,64,235,95,9,30,63,168,0,153,63,166,64,23,241,0,205,150,7,103,63,215,116,52,64,200,146,251,154
482+  5CC7 40 EB 5F 09
482+  5CCB 1E 3F A8 00
482+  5CCF 99 3F A6 40
482+  5CD3 17 F1 00 CD
482+  5CD7 96 07 67 3F
482+  5CDB D7 74 34 40
482+  5CDF C8 92 FB 9A
483+  5CE3 08 EE 2A 40                          db	8,238,42,64,97,166,159,30,61,140,0,174,64,32,65,168,149,231,200,211,3,238,31,64,73,0,143,134,61,143,31,148
483+  5CE7 61 A6 9F 1E
483+  5CEB 3D 8C 00 AE
483+  5CEF 40 20 41 A8
483+  5CF3 95 E7 C8 D3
483+  5CF7 03 EE 1F 40
483+  5CFB 49 00 8F 86
483+  5CFF 3D 8F 1F 94
484+  5D03 AB 93 FB 04                          db	171,147,251,4,174,242,22,194,177,171,80,165,176,246,148,229,39,29,154,232,39,23,227,64,98,30,174,146,227,23,176,91
484+  5D07 AE F2 16 C2
484+  5D0B B1 AB 50 A5
484+  5D0F B0 F6 94 E5
484+  5D13 27 1D 9A E8
484+  5D17 27 17 E3 40
484+  5D1B 62 1E AE 92
484+  5D1F E3 17 B0 5B
485+  5D23 C3 CA 84 33                          db	195,202,132,51,31,231,8,188,29,92,234,211,202,206,210,9,66,70,31,4,174,150,223,213,193,198,66,25,21,24,150,25
485+  5D27 1F E7 08 BC
485+  5D2B 1D 5C EA D3
485+  5D2F CA CE D2 09
485+  5D33 42 46 1F 04
485+  5D37 AE 96 DF D5
485+  5D3B C1 C6 42 19
485+  5D3F 15 18 96 19
486+  5D43 84 B1 FB D2                          db	132,177,251,210,66,194,50,29,96,153,129,255,235,166,66,247,64,129,140,56,241,48,198,154,204,236,236,52,14,131,93,31
486+  5D47 42 C2 32 1D
486+  5D4B 60 99 81 FF
486+  5D4F EB A6 42 F7
486+  5D53 40 81 8C 38
486+  5D57 F1 30 C6 9A
486+  5D5B CC EC EC 34
486+  5D5F 0E 83 5D 1F
487+  5D63 DD 56 57 DF                          db	221,86,87,223,0,62,0,18,128,18,103,14,27,211,83,64,40,178,220,4,64,128,103,182,37,248,2,193,87,163,227,87
487+  5D67 00 3E 00 12
487+  5D6B 80 12 67 0E
487+  5D6F 1B D3 53 40
487+  5D73 28 B2 DC 04
487+  5D77 40 80 67 B6
487+  5D7B 25 F8 02 C1
487+  5D7F 57 A3 E3 57
488+  5D83 5B 39 D8 19                          db	91,57,216,25,194,128,234,251,65,132,223,209,63,115,131,121,217,126,64,131,193,43,193,201,31,89,11,64,66,227,19,63
488+  5D87 C2 80 EA FB
488+  5D8B 41 84 DF D1
488+  5D8F 3F 73 83 79
488+  5D93 D9 7E 40 83
488+  5D97 C1 2B C1 C9
488+  5D9B 1F 59 0B 40
488+  5D9F 42 E3 13 3F
489+  5DA3 41 80 71 C5                          db	65,128,113,197,60,200,30,129,211,1,178,54,129,19,124,63,64,14,178,63,125,31,63,135,86,63,250,147,5,190,0,128
489+  5DA7 3C C8 1E 81
489+  5DAB D3 01 B2 36
489+  5DAF 81 13 7C 3F
489+  5DB3 40 0E B2 3F
489+  5DB7 7D 1F 3F 87
489+  5DBB 56 3F FA 93
489+  5DBF 05 BE 00 80
490+  5DC3 43 42 83 89                          db	67,66,131,137,178,38,66,174,20,131,236,83,188,231,153,175,7,79,149,164,101,31,250,61,66,194,14,54,119,63,87,76
490+  5DC7 B2 26 42 AE
490+  5DCB 14 83 EC 53
490+  5DCF BC E7 99 AF
490+  5DD3 07 4F 95 A4
490+  5DD7 65 1F FA 3D
490+  5DDB 42 C2 0E 36
490+  5DDF 77 3F 57 4C
491+  5DE3 17 1F F5 3D                          db	23,31,245,61,200,178,49,131,184,157,63,211,67,129,22,63,67,125,226,64,49,4,130,190,30,70,129,40,66,187,63,64
491+  5DE7 C8 B2 31 83
491+  5DEB B8 9D 3F D3
491+  5DEF 43 81 16 3F
491+  5DF3 43 7D E2 40
491+  5DF7 31 04 82 BE
491+  5DFB 1E 46 81 28
491+  5DFF 42 BB 3F 40
492+  5E03 C3 B2 C2 04                          db	195,178,194,4,211,212,126,129,49,88,63,192,91,64,227,179,14,2,124,63,129,120,78,154,31,140,25,70,130,101,63,215
492+  5E07 D3 D4 7E 81
492+  5E0B 31 58 3F C0
492+  5E0F 5B 40 E3 B3
492+  5E13 0E 02 7C 3F
492+  5E17 81 78 4E 9A
492+  5E1B 1F 8C 19 46
492+  5E1F 82 65 3F D7
493+  5E23 8C C1 55 1F                          db	140,193,85,31,6,128,242,118,255,132,67,247,229,133,48,128,39,3,64,241,58,128,240,0,183,155,63,64,194,192,42,31
493+  5E27 06 80 F2 76
493+  5E2B FF 84 43 F7
493+  5E2F E5 85 30 80
493+  5E33 27 03 40 F1
493+  5E37 3A 80 F0 00
493+  5E3B B7 9B 3F 40
493+  5E3F C2 C0 2A 1F
494+  5E43 E4 40 38 70                          db	228,64,56,112,247,0,157,63,171,64,129,66,5,225,120,59,63,193,14,2,219,128,63,152,133,163,104,63,130,108,209,187
494+  5E47 F7 00 9D 3F
494+  5E4B AB 40 81 42
494+  5E4F 05 E1 78 3B
494+  5E53 3F C1 0E 02
494+  5E57 DB 80 3F 98
494+  5E5B 85 A3 68 3F
494+  5E5F 82 6C D1 BB
495+  5E63 3F 40 B1 C5                          db	63,64,177,197,152,192,37,228,42,167,191,61,131,11,0,187,65,63,152,128,98,54,223,130,128,207,201,63,168,65,185,63
495+  5E67 98 C0 25 E4
495+  5E6B 2A A7 BF 3D
495+  5E6F 83 0B 00 BB
495+  5E73 41 3F 98 80
495+  5E77 62 36 DF 82
495+  5E7B 80 CF C9 3F
495+  5E7F A8 41 B9 3F
496+  5E83 D7 FD 3F B9                          db	215,253,63,185,126,48,4,186,158,63,41,0,194,116,123,195,87,64,148,253,241,63,82,31,73,123,4,216,0,134,199,36
496+  5E87 7E 30 04 BA
496+  5E8B 9E 3F 29 00
496+  5E8F C2 74 7B C3
496+  5E93 57 40 94 FD
496+  5E97 F1 3F 52 1F
496+  5E9B 49 7B 04 D8
496+  5E9F 00 86 C7 24
497+  5EA3 3F C3 BE 04                          db	63,195,190,4,171,174,64,215,61,200,63,146,146,233,64,34,0,92,63,97,0,85,31,99,62,183,32,130,221,0,51,131
497+  5EA7 AB AE 40 D7
497+  5EAB 3D C8 3F 92
497+  5EAF 92 E9 40 22
497+  5EB3 00 5C 3F 61
497+  5EB7 00 55 1F 63
497+  5EBB 3E B7 20 82
497+  5EBF DD 00 33 83
498+  5EC3 90 3F B9 40                          db	144,63,185,64,240,69,193,161,246,75,235,64,120,0,208,214,238,85,65,222,69,4,64,209,239,31,64,65,147,67,63,164
498+  5EC7 F0 45 C1 A1
498+  5ECB F6 4B EB 40
498+  5ECF 78 00 D0 D6
498+  5ED3 EE 55 41 DE
498+  5ED7 45 04 40 D1
498+  5EDB EF 1F 40 41
498+  5EDF 93 43 3F A4
499+  5EE3 1F 92 4B 00                          db	31,146,75,0,194,48,75,247,64,42,66,67,234,31,55,90,4,2,171,186,154,64,243,63,205,71,48,47,0,192,180,9
499+  5EE7 C2 30 4B F7
499+  5EEB 40 2A 42 43
499+  5EEF EA 1F 37 5A
499+  5EF3 04 02 AB BA
499+  5EF7 9A 40 F3 3F
499+  5EFB CD 47 30 2F
499+  5EFF 00 C0 B4 09
500+  5F03 AB C0 C1 C7                          db	171,192,193,199,66,30,31,209,173,53,195,254,225,153,154,145,144,234,31,213,63,243,253,22,33,96,193,79,62,31,182,82
500+  5F07 42 1E 1F D1
500+  5F0B AD 35 C3 FE
500+  5F0F E1 99 9A 91
500+  5F13 90 EA 1F D5
500+  5F17 3F F3 FD 16
500+  5F1B 21 60 C1 4F
500+  5F1F 3E 1F B6 52
501+  5F23 C2 D5 D6 35                          db	194,213,214,53,96,140,176,135,62,22,131,188,226,94,148,138,16,192,141,30,110,21,234,234,143,19,142,97,135,87,31,96
501+  5F27 60 8C B0 87
501+  5F2B 3E 16 83 BC
501+  5F2F E2 5E 94 8A
501+  5F33 10 C0 8D 1E
501+  5F37 6E 15 EA EA
501+  5F3B 8F 13 8E 61
501+  5F3F 87 57 1F 60
502+  5F43 7E 0E 20 20                          db	126,14,32,32,48,173,0,116,95,1,2,0,45,12,198,13,167,0,184,0,230,9,12,171,5,41,137,0,92,252,2,243
502+  5F47 30 AD 00 74
502+  5F4B 5F 01 02 00
502+  5F4F 2D 0C C6 0D
502+  5F53 A7 00 B8 00
502+  5F57 E6 09 0C AB
502+  5F5B 05 29 89 00
502+  5F5F 5C FC 02 F3
503+  5F63 0A 44 07 22                          db	10,68,7,34,54,252,34,0,98,12,234,21,0,0,1
503+  5F67 36 FC 22 00
503+  5F6B 62 0C EA 15
503+  5F6F 00 00 01
504+  5F72              lode_runner
505+  5F72 20                                   db	32			; A sprite szélessége byte-okban
506+  5F73 78                                   db	120			; A sprite magassága
507+  5F74 FF A0 00 EA                          db	255,160,0,234,192,192,3,137,0,74,192,0,144,11,192,48,144,12,0,18,98,213,186,147,31,204,204,60,33,252,15,28
507+  5F78 C0 C0 03 89
507+  5F7C 00 4A C0 00
507+  5F80 90 0B C0 30
507+  5F84 90 0C 00 12
507+  5F88 62 D5 BA 93
507+  5F8C 1F CC CC 3C
507+  5F90 21 FC 0F 1C
508+  5F94 60 C0 05 3C                          db	96,192,5,60,96,12,72,132,172,31,255,31,33,70,203,31,140,12,30,22,86,184,232,62,148,109,12,31,132,31,25,51
508+  5F98 60 0C 48 84
508+  5F9C AC 1F FF 1F
508+  5FA0 21 46 CB 1F
508+  5FA4 8C 0C 1E 16
508+  5FA8 56 B8 E8 3E
508+  5FAC 94 6D 0C 1F
508+  5FB0 84 1F 19 33
509+  5FB4 1F 90 1F 5D                          db	31,144,31,93,140,78,107,62,31,144,31,5,72,192,72,12,192,5,31,192,255,96,148,37,31,196,31,61,12,92,31,96
509+  5FB8 8C 4E 6B 3E
509+  5FBC 1F 90 1F 05
509+  5FC0 48 C0 48 0C
509+  5FC4 C0 05 1F C0
509+  5FC8 FF 60 94 25
509+  5FCC 1F C4 1F 3D
509+  5FD0 0C 5C 1F 60
510+  5FD4 90 8C 12 AE                          db	144,140,18,174,104,96,61,192,174,144,31,129,3,22,18,192,66,30,36,216,2,116,31,96,145,192,1,96,52,56,48,192
510+  5FD8 68 60 3D C0
510+  5FDC AE 90 1F 81
510+  5FE0 03 16 12 C0
510+  5FE4 42 1E 24 D8
510+  5FE8 02 74 1F 60
510+  5FEC 91 C0 01 60
510+  5FF0 34 38 30 C0
511+  5FF4 84 4C C8 1B                          db	132,76,200,27,192,30,31,142,10,70,45,236,78,63,48,132,198,90,144,148,96,18,192,136,31,11,18,129,192,6,31,240
511+  5FF8 C0 1E 1F 8E
511+  5FFC 0A 46 2D EC
511+  6000 4E 3F 30 84
511+  6004 C6 5A 90 94
511+  6008 60 12 C0 88
511+  600C 1F 0B 12 81
511+  6010 C0 06 1F F0
512+  6014 00 D4 FC 5D                          db	0,212,252,93,36,7,96,104,97,144,3,76,212,255,51,130,12,93,174,12,66,66,239,58,31,7,219,62,12,63,61,61
512+  6018 24 07 60 68
512+  601C 61 90 03 4C
512+  6020 D4 FF 33 82
512+  6024 0C 5D AE 0C
512+  6028 42 42 EF 3A
512+  602C 1F 07 DB 3E
512+  6030 0C 3F 3D 3D
513+  6034 D9 00 C8 1F                          db	217,0,200,31,93,38,75,31,255,27,251,2,21,156,26,214,12,180,53,31,104,10,10,140,196,196,59,237,0,31,12,118
513+  6038 5D 26 4B 1F
513+  603C FF 1B FB 02
513+  6040 15 9C 1A D6
513+  6044 0C B4 35 1F
513+  6048 68 0A 0A 8C
513+  604C C4 C4 3B ED
513+  6050 00 1F 0C 76
514+  6054 1F BE 22 18                          db	31,190,34,24,192,36,150,31,148,31,96,209,31,38,106,31,129,31,127,66,31,66,31,141,189,132,32,76,196,25,187,222
514+  6058 C0 24 96 1F
514+  605C 94 1F 60 D1
514+  6060 1F 26 6A 1F
514+  6064 81 1F 7F 42
514+  6068 1F 42 1F 8D
514+  606C BD 84 20 4C
514+  6070 C4 19 BB DE
515+  6074 1F 74 00 09                          db	31,116,0,9,183,31,48,22,229,41,62,106,148,125,7,31,27,234,0,68,25,135,15,2,32,74,70,157,66,148,61,60
515+  6078 B7 1F 30 16
515+  607C E5 29 3E 6A
515+  6080 94 7D 07 1F
515+  6084 1B EA 00 44
515+  6088 19 87 0F 02
515+  608C 20 4A 46 9D
515+  6090 42 94 3D 3C
516+  6094 BD 05 12 1F                          db	189,5,18,31,93,172,26,51,132,23,51,31,181,0,66,21,132,154,31,149,189,64,132,93,31,32,119,88,31,32,38,38
516+  6098 5D AC 1A 33
516+  609C 84 17 33 1F
516+  60A0 B5 00 42 15
516+  60A4 84 9A 1F 95
516+  60A8 BD 40 84 5D
516+  60AC 1F 20 77 58
516+  60B0 1F 20 26 26
517+  60B4 8C B0 A3 C5                          db	140,176,163,197,245,72,98,31,252,189,60,121,31,65,224,38,216,71,163,50,204,179,177,31,60,252,62,93,63,9,95,27
517+  60B8 F5 48 62 1F
517+  60BC FC BD 3C 79
517+  60C0 1F 41 E0 26
517+  60C4 D8 47 A3 32
517+  60C8 CC B3 B1 1F
517+  60CC 3C FC 3E 5D
517+  60D0 3F 09 5F 1B
518+  60D4 00 43 7E 5D                          db	0,67,126,93,66,237,93,31,8,139,145,148,124,22,252,188,192,31,96,177,59,25,255,44,102,27,12,140,165,4,102,220
518+  60D8 42 ED 5D 1F
518+  60DC 08 8B 91 94
518+  60E0 7C 16 FC BC
518+  60E4 C0 1F 60 B1
518+  60E8 3B 19 FF 2C
518+  60EC 66 1B 0C 8C
518+  60F0 A5 04 66 DC
519+  60F4 AF 1F 94 1F                          db	175,31,148,31,69,178,31,192,213,176,90,192,181,94,140,106,34,31,232,117,200,31,212,124,141,31,57,51,132,160,211,94
519+  60F8 45 B2 1F C0
519+  60FC D5 B0 5A C0
519+  6100 B5 5E 8C 6A
519+  6104 22 1F E8 75
519+  6108 C8 1F D4 7C
519+  610C 8D 1F 39 33
519+  6110 84 A0 D3 5E
520+  6114 E5 1F 7F 7C                          db	229,31,127,124,106,4,201,155,31,125,125,224,5,24,16,249,76,76,140,20,72,196,252,31,204,4,72,106,126,252,104,161
520+  6118 6A 04 C9 9B
520+  611C 1F 7D 7D E0
520+  6120 05 18 10 F9
520+  6124 4C 4C 8C 14
520+  6128 48 C4 FC 1F
520+  612C CC 04 48 6A
520+  6130 7E FC 68 A1
521+  6134 E9 25 1F 2A                          db	233,37,31,42,95,24,22,162,121,41,31,94,200,38,31,130,99,190,255,104,130,74,31,170,62,31,55,172,132,31,29,92
521+  6138 5F 18 16 A2
521+  613C 79 29 1F 5E
521+  6140 C8 26 1F 82
521+  6144 63 BE FF 68
521+  6148 82 4A 1F AA
521+  614C 3E 1F 37 AC
521+  6150 84 1F 1D 5C
522+  6154 96 00 D4 CC                          db	150,0,212,204,166,150,31,60,251,31,6,128,41,222,31,232,31,30,212,74,236,97,213,47,28,93,31,0,178,94,192,220
522+  6158 A6 96 1F 3C
522+  615C FB 1F 06 80
522+  6160 29 DE 1F E8
522+  6164 1F 1E D4 4A
522+  6168 EC 61 D5 2F
522+  616C 1C 5D 1F 00
522+  6170 B2 5E C0 DC
523+  6174 46 1F 95 0D                          db	70,31,149,13,118,195,169,30,92,36,31,203,195,123,45,82,196,117,193,167,189,139,11,145,212,252,83,176,21,174,28,72
523+  6178 76 C3 A9 1E
523+  617C 5C 24 1F CB
523+  6180 C3 7B 2D 52
523+  6184 C4 75 C1 A7
523+  6188 BD 8B 0B 91
523+  618C D4 FC 53 B0
523+  6190 15 AE 1C 48
524+  6194 D5 AF 1F 3B                          db	213,175,31,59,2,13,204,200,196,152,20,220,159,31,145,98,62,16,141,188,139,31,255,28,234,31,95,192,31,0,128,63
524+  6198 02 0D CC C8
524+  619C C4 98 14 DC
524+  61A0 9F 1F 91 62
524+  61A4 3E 10 8D BC
524+  61A8 8B 1F FF 1C
524+  61AC EA 1F 5F C0
524+  61B0 1F 00 80 3F
525+  61B4 8C DC FC 3F                          db	140,220,252,63,106,145,118,53,232,152,31,93,149,203,148,130,235,31,156,182,54,252,0,236,202,35,232,200,63,41,51,98
525+  61B8 6A 91 76 35
525+  61BC E8 98 1F 5D
525+  61C0 95 CB 94 82
525+  61C4 EB 1F 9C B6
525+  61C8 36 FC 00 EC
525+  61CC CA 23 E8 C8
525+  61D0 3F 29 33 62
526+  61D4 1F 7D 41 C4                          db	31,125,65,196,127,95,0,31,149,3,234,196,30,102,31,232,174,63,51,197,32,28,125,234,219,31,0,226,157,1,255,213
526+  61D8 7F 5F 00 1F
526+  61DC 95 03 EA C4
526+  61E0 1E 66 1F E8
526+  61E4 AE 3F 33 C5
526+  61E8 20 1C 7D EA
526+  61EC DB 1F 00 E2
526+  61F0 9D 01 FF D5
527+  61F4 75 87 C3 1F                          db	117,135,195,31,91,66,31,255,63,187,31,95,145,31,166,131,174,213,62,95,213,31,32,134,228,12,213,98,119,31,50,60
527+  61F8 5B 42 1F FF
527+  61FC 3F BB 1F 5F
527+  6200 91 1F A6 83
527+  6204 AE D5 3E 5F
527+  6208 D5 1F 20 86
527+  620C E4 0C D5 62
527+  6210 77 1F 32 3C
528+  6214 3C AC 1C A0                          db	60,172,28,160,44,128,116,157,47,117,144,31,0,234,3,31,130,63,38,44,28,213,85,31,44,139,31,255,48,186,31,97
528+  6218 2C 80 74 9D
528+  621C 2F 75 90 1F
528+  6220 00 EA 03 1F
528+  6224 82 3F 26 2C
528+  6228 1C D5 55 1F
528+  622C 2C 8B 1F FF
528+  6230 30 BA 1F 61
529+  6234 CC 80 6A 1F                          db	204,128,106,31,12,31,68,60,227,31,223,180,94,186,77,196,234,63,132,63,22,54,12,125,193,52,35,140,219,31,48,6
529+  6238 0C 1F 44 3C
529+  623C E3 1F DF B4
529+  6240 5E BA 4D C4
529+  6244 EA 3F 84 3F
529+  6248 16 36 0C 7D
529+  624C C1 34 23 8C
529+  6250 DB 1F 30 06
530+  6254 68 29 FD 40                          db	104,41,253,64,60,31,200,40,31,52,12,104,247,52,6,119,21,158,130,233,27,28,104,23,201,155,220,209,95,128,244,44
530+  6258 3C 1F C8 28
530+  625C 1F 34 0C 68
530+  6260 F7 34 06 77
530+  6264 15 9E 82 E9
530+  6268 1B 1C 68 17
530+  626C C9 9B DC D1
530+  6270 5F 80 F4 2C
531+  6274 1F 1C 2F 39                          db	31,28,47,57,104,6,169,10,31,10,213,56,234,148,134,28,228,107,64,165,124,153,109,56,28,140,253,143,133,134,232,212
531+  6278 68 06 A9 0A
531+  627C 1F 0A D5 38
531+  6280 EA 94 86 1C
531+  6284 E4 6B 40 A5
531+  6288 7C 99 6D 38
531+  628C 1C 8C FD 8F
531+  6290 85 86 E8 D4
532+  6294 E3 D5 60 EA                          db	227,213,96,234,44,240,30,218,196,32,172,92,192,184,31,222,102,31,213,187,7,187,197,201,96,230,33,20,56,132,126,232
532+  6298 2C F0 1E DA
532+  629C C4 20 AC 5C
532+  62A0 C0 B8 1F DE
532+  62A4 66 1F D5 BB
532+  62A8 07 BB C5 C9
532+  62AC 60 E6 21 14
532+  62B0 38 84 7E E8
533+  62B4 A8 8B 59 9C                          db	168,139,89,156,157,214,88,222,17,29,31,7,139,132,132,60,197,188,204,134,158,10,186,172,63,222,31,44,82,31,255,95
533+  62B8 9D D6 58 DE
533+  62BC 11 1D 1F 07
533+  62C0 8B 84 84 3C
533+  62C4 C5 BC CC 86
533+  62C8 9E 0A BA AC
533+  62CC 3F DE 1F 2C
533+  62D0 52 1F FF 5F
534+  62D4 22 10 7E 83                          db	34,16,126,131,159,132,31,121,204,64,253,84,132,237,24,190,200,20,12,31,185,144,160,60,64,199,254,62,94,178,31,168
534+  62D8 9F 84 1F 79
534+  62DC CC 40 FD 54
534+  62E0 84 ED 18 BE
534+  62E4 C8 14 0C 1F
534+  62E8 B9 90 A0 3C
534+  62EC 40 C7 FE 3E
534+  62F0 5E B2 1F A8
535+  62F4 AC 1F 8D 29                          db	172,31,141,41,31,28,105,31,187,176,31,222,211,242,31,173,30,184,250,66,158,13,31,156,143,189,16,165,63,119,227,63
535+  62F8 1F 1C 69 1F
535+  62FC BB B0 1F DE
535+  6300 D3 F2 1F AD
535+  6304 1E B8 FA 42
535+  6308 9E 0D 1F 9C
535+  630C 8F BD 10 A5
535+  6310 3F 77 E3 3F
536+  6314 13 0C AE 1F                          db	19,12,174,31,6,181,64,30,56,62,197,167,13,28,62,212,226,60,125,119,190,124,68,164,232,2,228,221,232,99,163,219
536+  6318 06 B5 40 1E
536+  631C 38 3E C5 A7
536+  6320 0D 1C 3E D4
536+  6324 E2 3C 7D 77
536+  6328 BE 7C 44 A4
536+  632C E8 02 E4 DD
536+  6330 E8 63 A3 DB
537+  6334 90 C6 6B 1F                          db	144,198,107,31,72,213,31,125,212,54,145,163,15,72,60,31,40,200,236,190,40,62,48,252,40,92,172,206,124,125,93,54
537+  6338 48 D5 1F 7D
537+  633C D4 36 91 A3
537+  6340 0F 48 3C 1F
537+  6344 28 C8 EC BE
537+  6348 28 3E 30 FC
537+  634C 28 5C AC CE
537+  6350 7C 7D 5D 36
538+  6354 FE C3 BC 07                          db	254,195,188,7,183,157,198,193,132,31,192,52,96,184,31,254,117,126,31,138,1,253,253,192,31,153,0,236,170,74,148,228
538+  6358 B7 9D C6 C1
538+  635C 84 1F C0 34
538+  6360 60 B8 1F FE
538+  6364 75 7E 1F 8A
538+  6368 01 FD FD C0
538+  636C 1F 99 00 EC
538+  6370 AA 4A 94 E4
539+  6374 18 BE 89 BE                          db	24,190,137,190,188,31,92,134,32,254,254,124,19,98,214,157,223,29,96,64,11,178,12,54,203,210,31,104,80,63,62,188
539+  6378 BC 1F 5C 86
539+  637C 20 FE FE 7C
539+  6380 13 62 D6 9D
539+  6384 DF 1D 60 40
539+  6388 0B B2 0C 36
539+  638C CB D2 1F 68
539+  6390 50 3F 3E BC
540+  6394 75 D5 A9 1F                          db	117,213,169,31,127,62,98,17,0,40,57,119,31,44,72,94,212,11,62,60,161,63,212,172,232,141,190,133,154,102,62,153
540+  6398 7F 3E 62 11
540+  639C 00 28 39 77
540+  63A0 1F 2C 48 5E
540+  63A4 D4 0B 3E 3C
540+  63A8 A1 3F D4 AC
540+  63AC E8 8D BE 85
540+  63B0 9A 66 3E 99
541+  63B4 3C 6C 7D 1F                          db	60,108,125,31,172,234,23,213,11,251,125,42,6,212,216,29,6,255,151,218,2,65,32,60,51,190,57,75,136,222,18,31
541+  63B8 AC EA 17 D5
541+  63BC 0B FB 7D 2A
541+  63C0 06 D4 D8 1D
541+  63C4 06 FF 97 DA
541+  63C8 02 41 20 3C
541+  63CC 33 BE 39 4B
541+  63D0 88 DE 12 1F
542+  63D4 3F 74 51 EA                          db	63,116,81,234,31,96,212,134,165,10,234,36,254,190,31,235,32,31,181,21,253,177,63,56,241,236,126,31,144,254,217,153
542+  63D8 1F 60 D4 86
542+  63DC A5 0A EA 24
542+  63E0 FE BE 1F EB
542+  63E4 20 1F B5 15
542+  63E8 FD B1 3F 38
542+  63EC F1 EC 7E 1F
542+  63F0 90 FE D9 99
543+  63F4 FD 8F F8 12                          db	253,143,248,18,79,32,187,31,12,47,234,49,126,215,188,63,98,252,31,96,243,212,63,18,222,242,27,60,87,57,32,109
543+  63F8 4F 20 BB 1F
543+  63FC 0C 2F EA 31
543+  6400 7E D7 BC 3F
543+  6404 62 FC 1F 60
543+  6408 F3 D4 3F 12
543+  640C DE F2 1B 3C
543+  6410 57 39 20 6D
544+  6414 58 2C 1F 77                          db	88,44,31,119,253,184,96,254,88,118,98,184,192,243,105,247,173,229,9,31,57,54,97,1,193,67,31,212,234,187,62,195
544+  6418 FD B8 60 FE
544+  641C 58 76 62 B8
544+  6420 C0 F3 69 F7
544+  6424 AD E5 09 1F
544+  6428 39 36 61 01
544+  642C C1 43 1F D4
544+  6430 EA BB 3E C3
545+  6434 70 FE BA D4                          db	112,254,186,212,116,240,31,31,182,19,252,254,248,79,31,215,59,34,160,31,253,185,49,119,5,117,253,125,117,232,123,31
545+  6438 74 F0 1F 1F
545+  643C B6 13 FC FE
545+  6440 F8 4F 1F D7
545+  6444 3B 22 A0 1F
545+  6448 FD B9 31 77
545+  644C 05 75 FD 7D
545+  6450 75 E8 7B 1F
546+  6454 00 1F 60 5F                          db	0,31,96,95,81,213,232,148,125,54,30,125,253,30,45,119,48,253,60,65,119,20,31,212,243,133,133,234,144,13,31,148
546+  6458 51 D5 E8 94
546+  645C 7D 36 1E 7D
546+  6460 FD 1E 2D 77
546+  6464 30 FD 3C 41
546+  6468 77 14 1F D4
546+  646C F3 85 85 EA
546+  6470 90 0D 1F 94
547+  6474 BB 3C 21 BB                          db	187,60,33,187,224,30,58,48,50,96,253,113,54,132,92,10,116,35,212,40,184,200,225,139,76,153,196,19,145,57,248,138
547+  6478 E0 1E 3A 30
547+  647C 32 60 FD 71
547+  6480 36 84 5C 0A
547+  6484 74 23 D4 28
547+  6488 B8 C8 E1 8B
547+  648C 4C 99 C4 13
547+  6490 91 39 F8 8A
548+  6494 7E F0 14 F6                          db	126,240,20,246,58,251,186,25,31,205,161,144,88,31,191,165,196,31,252,96,63,252,25,253,113,253,247,91,203,234,183,184
548+  6498 3A FB BA 19
548+  649C 1F CD A1 90
548+  64A0 58 1F BF A5
548+  64A4 C4 1F FC 60
548+  64A8 3F FC 19 FD
548+  64AC 71 FD F7 5B
548+  64B0 CB EA B7 B8
549+  64B4 FB B8 9F 4A                          db	251,184,159,74,31,189,30,202,176,222,99,255,208,236,120,10,251,11,12,166,239,62,216,156,100,190,82,31,98,137,128,204
549+  64B8 1F BD 1E CA
549+  64BC B0 DE 63 FF
549+  64C0 D0 EC 78 0A
549+  64C4 FB 0B 0C A6
549+  64C8 EF 3E D8 9C
549+  64CC 64 BE 52 1F
549+  64D0 62 89 80 CC
550+  64D4 F5 83 3C 1F                          db	245,131,60,31,192,63,128,153,253,149,14,89,166,48,75,186,56,1,31,247,255,135,189,0,152,187,120,187,118,184,5,234
550+  64D8 C0 3F 80 99
550+  64DC FD 95 0E 59
550+  64E0 A6 30 4B BA
550+  64E4 38 01 1F F7
550+  64E8 FF 87 BD 00
550+  64EC 98 BB 78 BB
550+  64F0 76 B8 05 EA
551+  64F4 CE BD 7F 60                          db	206,189,127,96,163,184,203,9,100,145,136,138,0,93,156,31,123,59,2,78,132,219,122,30,163,250,150,243,69,192,49,196
551+  64F8 A3 B8 CB 09
551+  64FC 64 91 88 8A
551+  6500 00 5D 9C 1F
551+  6504 7B 3B 02 4E
551+  6508 84 DB 7A 1E
551+  650C A3 FA 96 F3
551+  6510 45 C0 31 C4
552+  6514 61 1F 94 AC                          db	97,31,148,172,143,184,62,31,243,92,254,166,145,167,184,188,29,56,102,200,173,31,138,151,174,62,219,118,250,143,153,48
552+  6518 8F B8 3E 1F
552+  651C F3 5C FE A6
552+  6520 91 A7 B8 BC
552+  6524 1D 38 66 C8
552+  6528 AD 1F 8A 97
552+  652C AE 3E DB 76
552+  6530 FA 8F 99 30
553+  6534 30 5E 63 D2                          db	48,94,99,210,220,221,99,89,78,229,97,135,53,62,96,167,152,48,96,177,131,219,151,33,223,98,226,16,133,89,31,96
553+  6538 DC DD 63 59
553+  653C 4E E5 61 87
553+  6540 35 3E 60 A7
553+  6544 98 30 60 B1
553+  6548 83 DB 97 21
553+  654C DF 62 E2 10
553+  6550 85 59 1F 60
554+  6554 EE 84 BD 9F                          db	238,132,189,159,62,233,113,151,42,31,236,228,31,236,171,235,149,213,30,170,226,13,186,26,93,210,3,255,170,220,31,150
554+  6558 3E E9 71 97
554+  655C 2A 1F EC E4
554+  6560 1F EC AB EB
554+  6564 95 D5 1E AA
554+  6568 E2 0D BA 1A
554+  656C 5D D2 03 FF
554+  6570 AA DC 1F 96
555+  6574 B9 DE EA F7                          db	185,222,234,247,30,0,196,126,224,0,131,184,168,214,207,132,184,127,30,127,190,31,63,111,31,124,253,42,194,10,160,212
555+  6578 1E 00 C4 7E
555+  657C E0 00 83 B8
555+  6580 A8 D6 CF 84
555+  6584 B8 7F 1E 7F
555+  6588 BE 1F 3F 6F
555+  658C 1F 7C FD 2A
555+  6590 C2 0A A0 D4
556+  6594 18 DF 1F 5E                          db	24,223,31,94,102,117,163,86,96,128,30,127,140,26,3,253,123,31,126,213,217,44,119,31,30,133,128,2,191,116,179,63
556+  6598 66 75 A3 56
556+  659C 60 80 1E 7F
556+  65A0 8C 1A 03 FD
556+  65A4 7B 1F 7E D5
556+  65A8 D9 2C 77 1F
556+  65AC 1E 85 80 02
556+  65B0 BF 74 B3 3F
557+  65B4 6F 18 99 1F                          db	111,24,153,31,87,232,94,18,175,31,36,64,130,63,105,226,30,127,143,238,4,220,150,117,187,211,186,30,203,174,253,14
557+  65B8 57 E8 5E 12
557+  65BC AF 1F 24 40
557+  65C0 82 3F 69 E2
557+  65C4 1E 7F 8F EE
557+  65C8 04 DC 96 75
557+  65CC BB D3 BA 1E
557+  65D0 CB AE FD 0E
558+  65D4 8F 73 CA EB                          db	143,115,202,235,195,87,144,131,176,191,162,128,252,67,31,159,51,223,228,93,154,14,207,88,234,43,232,234,145,119,48,30
558+  65D8 C3 57 90 83
558+  65DC B0 BF A2 80
558+  65E0 FC 43 1F 9F
558+  65E4 33 DF E4 5D
558+  65E8 9A 0E CF 58
558+  65EC EA 2B E8 EA
558+  65F0 91 77 30 1E
559+  65F4 C4 5D 3E 73                          db	196,93,62,115,170,156,226,57,7,220,15,108,38,31,117,179,49,82,49,192,230,82,31,49,62,96,31,152,117,56,166,62
559+  65F8 AA 9C E2 39
559+  65FC 07 DC 0F 6C
559+  6600 26 1F 75 B3
559+  6604 31 52 31 C0
559+  6608 E6 52 1F 31
559+  660C 3E 60 1F 98
559+  6610 75 38 A6 3E
560+  6614 DC 1F 57 EA                          db	220,31,87,234,21,62,38,141,105,189,88,0,142,111,197,245,50,62,145,187,215,87,31,123,179,140,232,198,37,145,63,31
560+  6618 15 3E 26 8D
560+  661C 69 BD 58 00
560+  6620 8E 6F C5 F5
560+  6624 32 3E 91 BB
560+  6628 D7 57 1F 7B
560+  662C B3 8C E8 C6
560+  6630 25 91 3F 1F
561+  6634 5C 28 3F 1B                          db	92,40,63,27,48,96,221,198,240,18,189,198,203,185,196,96,252,62,82,9,129,160,65,187,76,63,144,213,30,144,31,189
561+  6638 30 60 DD C6
561+  663C F0 12 BD C6
561+  6640 CB B9 C4 60
561+  6644 FC 3E 52 09
561+  6648 81 A0 41 BB
561+  664C 4C 3F 90 D5
561+  6650 1E 90 1F BD
562+  6654 54 B9 6F 62                          db	84,185,111,98,31,24,236,20,228,187,53,255,10,63,23,48,100,12,14,123,177,82,31,29,210,135,0,144,49,100,200,60
562+  6658 1F 18 EC 14
562+  665C E4 BB 35 FF
562+  6660 0A 3F 17 30
562+  6664 64 0C 0E 7B
562+  6668 B1 52 1F 1D
562+  666C D2 87 00 90
562+  6670 31 64 C8 3C
563+  6674 44 82 75 F3                          db	68,130,117,243,200,109,89,213,222,233,149,225,21,208,114,28,211,64,42,196,187,81,255,38,72,76,181,238,207,159,125,81
563+  6678 C8 6D 59 D5
563+  667C DE E9 95 E1
563+  6680 15 D0 72 1C
563+  6684 D3 40 2A C4
563+  6688 BB 51 FF 26
563+  668C 48 4C B5 EE
563+  6690 CF 9F 7D 51
564+  6694 62 E4 56 C1                          db	98,228,86,193,29,209,226,39,175,81,236,63,128,95,31,22,192,252,48,234,217,31,50,228,24,255,232,7,243,166,24,164
564+  6698 1D D1 E2 27
564+  669C AF 51 EC 3F
564+  66A0 80 5F 1F 16
564+  66A4 C0 FC 30 EA
564+  66A8 D9 1F 32 E4
564+  66AC 18 FF E8 07
564+  66B0 F3 A6 18 A4
565+  66B4 8D 7E 5C 13                          db	141,126,92,19,63,0,184,161,190,122,234,124,12,234,159,180,22,215,254,133,165,226,171,60,172,18,60,232,66,147,118,13
565+  66B8 3F 00 B8 A1
565+  66BC BE 7A EA 7C
565+  66C0 0C EA 9F B4
565+  66C4 16 D7 FE 85
565+  66C8 A5 E2 AB 3C
565+  66CC AC 12 3C E8
565+  66D0 42 93 76 0D
566+  66D4 74 08 CC B8                          db	116,8,204,184,149,122,145,63,47,113,214,93,204,141,125,61,54,191,174,127,113,7,130,221,48,95,239,252,66,1,237,254
566+  66D8 95 7A 91 3F
566+  66DC 2F 71 D6 5D
566+  66E0 CC 8D 7D 3D
566+  66E4 36 BF AE 7F
566+  66E8 71 07 82 DD
566+  66EC 30 5F EF FC
566+  66F0 42 01 ED FE
567+  66F4 1F E3 DF 48                          db	31,227,223,72,60,22,222,63,211,253,6,7,147,209,196,58,160,31,132,24,36,72,174,63,31,90,63,183,108,6,238,186
567+  66F8 3C 16 DE 3F
567+  66FC D3 FD 06 07
567+  6700 93 D1 C4 3A
567+  6704 A0 1F 84 18
567+  6708 24 48 AE 3F
567+  670C 1F 5A 3F B7
567+  6710 6C 06 EE BA
568+  6714 75 60 41 00                          db	117,96,65,0,244,90,31,255,117,167,78,232,57,196,254,188,190,173,245,197,221,98,32,147,236,31,148,63,133,15,86,14
568+  6718 F4 5A 1F FF
568+  671C 75 A7 4E E8
568+  6720 39 C4 FE BC
568+  6724 BE AD F5 C5
568+  6728 DD 62 20 93
568+  672C EC 1F 94 3F
568+  6730 85 0F 56 0E
569+  6734 20 E3 5D 23                          db	32,227,93,35,131,191,56,177,122,221,18,186,98,255,28,27,5,8,20,133,74,15,31,132,250,30,63,194,14,167,250,32
569+  6738 83 BF 38 B1
569+  673C 7A DD 12 BA
569+  6740 62 FF 1C 1B
569+  6744 05 08 14 85
569+  6748 4A 0F 1F 84
569+  674C FA 1E 3F C2
569+  6750 0E A7 FA 20
570+  6754 85 8C C5 37                          db	133,140,197,55,31,24,33,209,75,31,192,74,94,64,0,248,27,117,220,63,235,31,143,243,143,214,48,12,31,96,249,33
570+  6758 1F 18 21 D1
570+  675C 4B 1F C0 4A
570+  6760 5E 40 00 F8
570+  6764 1B 75 DC 3F
570+  6768 EB 1F 8F F3
570+  676C 8F D6 30 0C
570+  6770 1F 60 F9 21
571+  6774 3F 7C 20 11                          db	63,124,32,17,63,221,253,43,152,144,31,196,21,145,73,78,98,135,160,29,247,0,97,0,117,127,153,142,204,126,179,152
571+  6778 3F DD FD 2B
571+  677C 98 90 1F C4
571+  6780 15 91 49 4E
571+  6784 62 87 A0 1D
571+  6788 F7 00 61 00
571+  678C 75 7F 99 8E
571+  6790 CC 7E B3 98
572+  6794 0E B1 D5 B1                          db	14,177,213,177,155,164,64,15,157,97,61,162,253,104,241,238,98,106,244,48,237,83,31,72,225,31,195,59,63,190,16,115
572+  6798 9B A4 40 0F
572+  679C 9D 61 3D A2
572+  67A0 FD 68 F1 EE
572+  67A4 62 6A F4 30
572+  67A8 ED 53 1F 48
572+  67AC E1 1F C3 3B
572+  67B0 3F BE 10 73
573+  67B4 64 FC C9 13                          db	100,252,201,19,80,116,31,143,138,133,71,187,64,62,176,222,203,243,19,158,31,134,222,179,0,203,59,141,78,18,62,174
573+  67B8 50 74 1F 8F
573+  67BC 8A 85 47 BB
573+  67C0 40 3E B0 DE
573+  67C4 CB F3 13 9E
573+  67C8 1F 86 DE B3
573+  67CC 00 CB 3B 8D
573+  67D0 4E 12 3E AE
574+  67D4 1F 05 4B 1F                          db	31,5,75,31,245,92,158,108,164,43,165,114,31,74,132,242,63,174,234,16,126,212,0,104,62,56,146,9,152,31,200,164
574+  67D8 F5 5C 9E 6C
574+  67DC A4 2B A5 72
574+  67E0 1F 4A 84 F2
574+  67E4 3F AE EA 10
574+  67E8 7E D4 00 68
574+  67EC 3E 38 92 09
574+  67F0 98 1F C8 A4
575+  67F4 2D 85 3F 38                          db	45,133,63,56,103,249,113,193,190,27,52,10,62,175,96,133,109,137,139,133,14,126,168,182,239,126,90,31,68,132,36,62
575+  67F8 67 F9 71 C1
575+  67FC BE 1B 34 0A
575+  6800 3E AF 60 85
575+  6804 6D 89 8B 85
575+  6808 0E 7E A8 B6
575+  680C EF 7E 5A 1F
575+  6810 44 84 24 3E
576+  6814 C4 1F 5A 0F                          db	196,31,90,15,189,248,45,195,222,62,31,144,124,132,62,8,157,33,30,115,96,31,125,63,126,29,255,31,161,221,8,31
576+  6818 BD F8 2D C3
576+  681C DE 3E 1F 90
576+  6820 7C 84 3E 08
576+  6824 9D 21 1E 73
576+  6828 60 1F 7D 3F
576+  682C 7E 1D FF 1F
576+  6830 A1 DD 08 1F
577+  6834 F4 3E 00 A6                          db	244,62,0,166,74,255,127,124,100,236,234,148,220,46,158,170,38,90,62,239,54,15,153,117,64,148,251,139,175,86,88,217
577+  6838 4A FF 7F 7C
577+  683C 64 EC EA 94
577+  6840 DC 2E 9E AA
577+  6844 26 5A 3E EF
577+  6848 36 0F 99 75
577+  684C 40 94 FB 8B
577+  6850 AF 56 58 D9
578+  6854 77 26 F8 3E                          db	119,38,248,62,92,179,98,3,200,15,174,151,129,9,18,174,234,36,245,54,96,127,127,130,117,31,168,61,31,205,192,4
578+  6858 5C B3 62 03
578+  685C C8 0F AE 97
578+  6860 81 09 12 AE
578+  6864 EA 24 F5 36
578+  6868 60 7F 7F 82
578+  686C 75 1F A8 3D
578+  6870 1F CD C0 04
579+  6874 FD 92 5E DD                          db	253,146,94,221,122,41,175,31,192,31,13,125,254,123,153,203,126,19,35,79,184,177,31,236,133,192,31,72,93,192,172,253
579+  6878 7A 29 AF 1F
579+  687C C0 1F 0D 7D
579+  6880 FE 7B 99 CB
579+  6884 7E 13 23 4F
579+  6888 B8 B1 1F EC
579+  688C 85 C0 1F 48
579+  6890 5D C0 AC FD
580+  6894 18 E3 1F 3A                          db	24,227,31,58,0,31,169,158,31,200,166,96,116,49,144,174,238,132,180,31,241,88,204,198,169,36,63,12,31,31,65,253
580+  6898 00 1F A9 9E
580+  689C 1F C8 A6 60
580+  68A0 74 31 90 AE
580+  68A4 EE 84 B4 1F
580+  68A8 F1 58 CC C6
580+  68AC A9 24 3F 0C
580+  68B0 1F 1F 41 FD
581+  68B4 47 1F 8C 84                          db	71,31,140,132,0,249,31,244,194,63,124,31,235,38,200,63,18,166,49,50,140,244,85,95,31,208,31,69,63,226,132,9
581+  68B8 00 F9 1F F4
581+  68BC C2 3F 7C 1F
581+  68C0 EB 26 C8 3F
581+  68C4 12 A6 31 32
581+  68C8 8C F4 55 5F
581+  68CC 1F D0 1F 45
581+  68D0 3F E2 84 09
582+  68D4 1F 33 31 90                          db	31,51,49,144,142,153,194,221,252,9,31,242,112,158,188,63,177,135,209,238,153,31,24,221,29,23,221,64,134,160,132,0
582+  68D8 8E 99 C2 DD
582+  68DC FC 09 1F F2
582+  68E0 70 9E BC 3F
582+  68E4 B1 87 D1 EE
582+  68E8 99 1F 18 DD
582+  68EC 1D 17 DD 40
582+  68F0 86 A0 84 00
583+  68F4 10                                   db	16
584+  68F5              gunfright
585+  68F5 20                                   db	32			; A sprite szélessége byte-okban
586+  68F6 78                                   db	120			; A sprite magassága
587+  68F7 00 84 81 00                          db	0,132,129,0,51,98,145,51,128,95,6,0,4,128,9,51,192,192,51,48,96,192,137,0,6,145,243,179,115,179,21,114
587+  68FB 33 62 91 33
587+  68FF 80 5F 06 00
587+  6903 04 80 09 33
587+  6907 C0 C0 33 30
587+  690B 60 C0 89 00
587+  690F 06 91 F3 B3
587+  6913 73 B3 15 72
588+  6917 0C F5 F3 F2                          db	12,245,243,242,177,30,192,193,196,45,98,192,48,80,31,115,192,243,5,243,115,98,209,177,135,10,224,145,3,19,48,162
588+  691B B1 1E C0 C1
588+  691F C4 2D 62 C0
588+  6923 30 50 1F 73
588+  6927 C0 F3 05 F3
588+  692B 73 62 D1 B1
588+  692F 87 0A E0 91
588+  6933 03 13 30 A2
589+  6937 3D B0 9E 1F                          db	61,176,158,31,226,2,65,192,13,242,192,245,177,55,242,132,2,192,66,192,50,90,95,145,193,31,115,209,98,208,255,225
589+  693B E2 02 41 C0
589+  693F 0D F2 C0 F5
589+  6943 B1 37 F2 84
589+  6947 02 C0 42 C0
589+  694B 32 5A 5F 91
589+  694F C1 1F 73 D1
589+  6953 62 D0 FF E1
590+  6957 5D 0C 33 03                          db	93,12,51,3,131,66,145,6,192,144,43,31,209,3,59,179,208,117,63,20,145,145,35,95,48,34,112,48,232,126,31,115
590+  695B 83 42 91 06
590+  695F C0 90 2B 1F
590+  6963 D1 03 3B B3
590+  6967 D0 75 3F 14
590+  696B 91 91 23 5F
590+  696F 30 22 70 30
590+  6973 E8 7E 1F 73
591+  6977 91 61 F1 A0                          db	145,97,241,160,93,63,101,224,0,191,98,140,126,172,63,29,187,192,212,63,209,34,129,158,24,43,31,68,173,94,32,209
591+  697B 5D 3F 65 E0
591+  697F 00 BF 62 8C
591+  6983 7E AC 3F 1D
591+  6987 BB C0 D4 3F
591+  698B D1 22 81 9E
591+  698F 18 2B 1F 44
591+  6993 AD 5E 20 D1
592+  6997 86 9E 5F 83                          db	134,158,95,131,244,13,61,96,112,31,179,98,98,144,255,24,208,223,122,31,95,112,63,31,63,161,160,98,240,130,240,225
592+  699B F4 0D 3D 60
592+  699F 70 1F B3 62
592+  69A3 62 90 FF 18
592+  69A7 D0 DF 7A 1F
592+  69AB 5F 70 3F 1F
592+  69AF 3F A1 A0 62
592+  69B3 F0 82 F0 E1
593+  69B7 3F 36 1F 91                          db	63,54,31,145,63,114,177,159,36,114,242,63,69,50,164,31,179,191,12,31,250,240,222,0,241,31,63,66,141,63,160,223
593+  69BB 3F 72 B1 9F
593+  69BF 24 72 F2 3F
593+  69C3 45 32 A4 1F
593+  69C7 B3 BF 0C 1F
593+  69CB FA F0 DE 00
593+  69CF F1 1F 3F 42
593+  69D3 8D 3F A0 DF
594+  69D7 75 EA 02 7E                          db	117,234,2,126,236,127,0,242,159,81,195,212,31,159,43,247,90,36,255,240,31,61,35,67,31,95,48,25,31,189,93,196
594+  69DB EC 7F 00 F2
594+  69DF 9F 51 C3 D4
594+  69E3 1F 9F 2B F7
594+  69E7 5A 24 FF F0
594+  69EB 1F 3D 23 43
594+  69EF 1F 5F 30 19
594+  69F3 1F BD 5D C4
595+  69F7 1F 3F F1 20                          db	31,63,241,32,63,67,3,145,226,31,137,159,145,100,130,102,76,200,63,35,216,63,194,228,241,31,84,96,203,32,243,132
595+  69FB 3F 43 03 91
595+  69FF E2 1F 89 9F
595+  6A03 91 64 82 66
595+  6A07 4C C8 3F 23
595+  6A0B D8 3F C2 E4
595+  6A0F F1 1F 54 60
595+  6A13 CB 20 F3 84
596+  6A17 48 72 F1 91                          db	72,114,241,145,63,19,179,63,66,162,70,48,141,31,98,115,226,31,247,109,63,192,63,3,228,14,223,240,138,31,162,253
596+  6A1B 3F 13 B3 3F
596+  6A1F 42 A2 46 30
596+  6A23 8D 1F 62 73
596+  6A27 E2 1F F7 6D
596+  6A2B 3F C0 3F 03
596+  6A2F E4 0E DF F0
596+  6A33 8A 1F A2 FD
597+  6A37 CD B1 48 87                          db	205,177,72,135,219,0,191,30,204,30,126,171,30,31,44,160,12,255,243,255,22,192,63,226,55,76,12,95,19,126,241,63
597+  6A3B DB 00 BF 1E
597+  6A3F CC 1E 7E AB
597+  6A43 1E 1F 2C A0
597+  6A47 0C FF F3 FF
597+  6A4B 16 C0 3F E2
597+  6A4F 37 4C 0C 5F
597+  6A53 13 7E F1 3F
598+  6A57 1F 78 1E A2                          db	31,120,30,162,208,221,209,63,132,140,154,95,3,66,31,48,44,128,212,247,30,226,54,179,226,61,240,62,72,243,63,31
598+  6A5B D0 DD D1 3F
598+  6A5F 84 8C 9A 5F
598+  6A63 03 42 1F 30
598+  6A67 2C 80 D4 F7
598+  6A6B 1E E2 36 B3
598+  6A6F E2 3D F0 3E
598+  6A73 48 F3 3F 1F
599+  6A77 23 33 DF 08                          db	35,51,223,8,144,192,51,243,251,30,243,51,115,89,114,62,132,12,70,63,98,49,63,176,157,31,209,35,30,51,254,61
599+  6A7B 90 C0 33 F3
599+  6A7F FB 1E F3 33
599+  6A83 73 59 72 3E
599+  6A87 84 0C 46 3F
599+  6A8B 62 31 3F B0
599+  6A8F 9D 1F D1 23
599+  6A93 1E 33 FE 3D
600+  6A97 3F E0 45 3E                          db	63,224,69,62,12,66,81,31,127,186,186,42,31,209,155,92,179,30,98,97,236,63,62,12,129,190,31,64,116,31,247,220
600+  6A9B 0C 42 51 1F
600+  6A9F 7F BA BA 2A
600+  6AA3 1F D1 9B 5C
600+  6AA7 B3 1E 62 61
600+  6AAB EC 3F 3E 0C
600+  6AAF 81 BE 1F 40
600+  6AB3 74 1F F7 DC
601+  6AB7 1E 00 80 7D                          db	30,0,128,125,140,76,192,3,98,144,63,48,117,145,30,251,62,30,191,11,196,62,51,12,226,254,195,140,127,212,32,36
601+  6ABB 8C 4C C0 03
601+  6ABF 62 90 3F 30
601+  6AC3 75 91 1E FB
601+  6AC7 3E 1E BF 0B
601+  6ACB C4 3E 33 0C
601+  6ACF E2 FE C3 8C
601+  6AD3 7F D4 20 24
602+  6AD7 13 D5 39 FB                          db	19,213,57,251,98,30,193,199,140,224,62,0,204,243,163,145,19,90,51,63,255,138,18,251,226,239,93,61,204,158,87,140
602+  6ADB 62 1E C1 C7
602+  6ADF 8C E0 3E 00
602+  6AE3 CC F3 A3 91
602+  6AE7 13 5A 33 3F
602+  6AEB FF 8A 12 FB
602+  6AEF E2 EF 5D 3D
602+  6AF3 CC 9E 57 8C
603+  6AF7 CC 04 3E 4C                          db	204,4,62,76,26,76,140,89,31,129,135,255,94,81,93,62,179,209,238,30,93,204,29,139,57,72,192,62,60,76,166,31
603+  6AFB 1A 4C 8C 59
603+  6AFF 1F 81 87 FF
603+  6B03 5E 51 5D 3E
603+  6B07 B3 D1 EE 1E
603+  6B0B 5D CC 1D 8B
603+  6B0F 39 48 C0 3E
603+  6B13 3C 4C A6 1F
604+  6B17 FE 72 1F 75                          db	254,114,31,117,174,188,63,124,28,51,243,172,125,153,58,29,124,250,62,42,31,195,94,115,255,174,93,211,54,209,181,42
604+  6B1B AE BC 3F 7C
604+  6B1F 1C 33 F3 AC
604+  6B23 7D 99 3A 1D
604+  6B27 7C FA 3E 2A
604+  6B2B 1F C3 5E 73
604+  6B2F FF AE 5D D3
604+  6B33 36 D1 B5 2A
605+  6B37 73 DB 6F 3F                          db	115,219,111,63,0,185,64,21,62,12,31,131,32,115,12,89,255,213,181,60,7,226,119,246,30,57,200,155,29,24,5,219
605+  6B3B 00 B9 40 15
605+  6B3F 3E 0C 1F 83
605+  6B43 20 73 0C 59
605+  6B47 FF D5 B5 3C
605+  6B4B 07 E2 77 F6
605+  6B4F 1E 39 C8 9B
605+  6B53 1D 18 05 DB
606+  6B57 5E 7E 1F 55                          db	94,126,31,85,115,31,89,243,213,95,61,163,218,119,128,12,121,132,76,87,196,30,94,135,164,6,121,31,95,89,226,76
606+  6B5B 73 1F 59 F3
606+  6B5F D5 5F 3D A3
606+  6B63 DA 77 80 0C
606+  6B67 79 84 4C 57
606+  6B6B C4 1E 5E 87
606+  6B6F A4 06 79 1F
606+  6B73 5F 59 E2 4C
607+  6B77 5E F3 1E 91                          db	94,243,30,145,255,253,62,58,0,200,255,28,1,0,4,40,159,121,31,212,118,63,128,47,187,3,54,116,72,66,223,31
607+  6B7B FF FD 3E 3A
607+  6B7F 00 C8 FF 1C
607+  6B83 01 00 04 28
607+  6B87 9F 79 1F D4
607+  6B8B 76 3F 80 2F
607+  6B8F BB 03 36 74
607+  6B93 48 42 DF 1F
608+  6B97 02 42 7C 7F                          db	2,66,124,127,126,157,31,127,210,31,249,108,61,196,129,47,124,28,194,232,96,159,229,31,179,23,119,94,69,32,213,200
608+  6B9B 7E 9D 1F 7F
608+  6B9F D2 1F F9 6C
608+  6BA3 3D C4 81 2F
608+  6BA7 7C 1C C2 E8
608+  6BAB 60 9F E5 1F
608+  6BAF B3 17 77 5E
608+  6BB3 45 20 D5 C8
609+  6BB7 0C F9 A3 85                          db	12,249,163,133,56,159,106,178,213,153,31,251,165,187,225,31,250,216,63,165,221,31,242,95,32,226,31,195,255,117,132,95
609+  6BBB 38 9F 6A B2
609+  6BBF D5 99 1F FB
609+  6BC3 A5 BB E1 1F
609+  6BC7 FA D8 3F A5
609+  6BCB DD 1F F2 5F
609+  6BCF 20 E2 1F C3
609+  6BD3 FF 75 84 5F
610+  6BD7 64 DA 3F 40                          db	100,218,63,64,192,97,31,243,255,234,51,214,96,224,132,242,61,250,251,95,66,228,25,211,63,213,117,127,30,59,141,129
610+  6BDB C0 61 1F F3
610+  6BDF FF EA 33 D6
610+  6BE3 60 E0 84 F2
610+  6BE7 3D FA FB 5F
610+  6BEB 42 E4 19 D3
610+  6BEF 3F D5 75 7F
610+  6BF3 1E 3B 8D 81
611+  6BF7 8D 9E 54 5E                          db	141,158,84,94,12,233,31,174,111,63,30,22,187,59,125,164,142,151,31,8,69,255,87,31,62,63,36,30,250,31,63,93
611+  6BFB 0C E9 1F AE
611+  6BFF 6F 3F 1E 16
611+  6C03 BB 3B 7D A4
611+  6C07 8E 97 1F 08
611+  6C0B 45 FF 57 1F
611+  6C0F 3E 3F 24 1E
611+  6C13 FA 1F 3F 5D
612+  6C17 26 1F 7B 3E                          db	38,31,123,62,17,72,83,31,209,19,209,174,186,233,31,0,132,232,92,0,129,129,148,191,17,93,28,31,2,94,0,223
612+  6C1B 11 48 53 1F
612+  6C1F D1 13 D1 AE
612+  6C23 BA E9 1F 00
612+  6C27 84 E8 5C 00
612+  6C2B 81 81 94 BF
612+  6C2F 11 5D 1C 1F
612+  6C33 02 5E 00 DF
613+  6C37 92 09 3F 84                          db	146,9,63,132,255,48,48,31,190,70,145,233,31,223,99,191,130,134,186,90,31,249,88,210,31,98,19,194,31,243,178,48
613+  6C3B FF 30 30 1F
613+  6C3F BE 46 91 E9
613+  6C43 1F DF 63 BF
613+  6C47 82 86 BA 5A
613+  6C4B 1F F9 58 D2
613+  6C4F 1F 62 13 C2
613+  6C53 1F F3 B2 30
614+  6C57 18 F3 0D DD                          db	24,243,13,221,168,43,197,0,35,85,63,190,82,225,75,186,124,32,105,31,145,66,142,3,252,252,192,62,255,63,13,96
614+  6C5B A8 2B C5 00
614+  6C5F 23 55 3F BE
614+  6C63 52 E1 4B BA
614+  6C67 7C 20 69 1F
614+  6C6B 91 42 8E 03
614+  6C6F FC FC C0 3E
614+  6C73 FF 3F 0D 60
615+  6C77 5E 8F 00 64                          db	94,143,0,100,220,31,232,144,188,95,96,110,62,250,91,27,200,2,171,64,63,141,25,219,106,98,2,255,26,23,236,212
615+  6C7B DC 1F E8 90
615+  6C7F BC 5F 60 6E
615+  6C83 3E FA 5B 1B
615+  6C87 C8 02 AB 40
615+  6C8B 3F 8D 19 DB
615+  6C8F 6A 62 02 FF
615+  6C93 1A 17 EC D4
616+  6C97 FC 40 64 1F                          db	252,64,100,31,106,192,221,68,24,249,0,31,245,210,27,220,214,64,132,31,191,203,2,63,192,28,123,247,24,0,251,31
616+  6C9B 6A C0 DD 44
616+  6C9F 18 F9 00 1F
616+  6CA3 F5 D2 1B DC
616+  6CA7 D6 40 84 1F
616+  6CAB BF CB 02 3F
616+  6CAF C0 1C 7B F7
616+  6CB3 18 00 FB 1F
617+  6CB7 D3 03 FC 2C                          db	211,3,252,44,0,72,31,213,106,18,63,106,115,164,28,255,63,239,0,27,98,169,96,2,31,191,127,106,243,232,57,24
617+  6CBB 00 48 1F D5
617+  6CBF 6A 12 3F 6A
617+  6CC3 73 A4 1C FF
617+  6CC7 3F EF 00 1B
617+  6CCB 62 A9 60 02
617+  6CCF 1F BF 7F 6A
617+  6CD3 F3 E8 39 18
618+  6CD7 B3 B3 3B F3                          db	179,179,59,243,38,230,78,51,63,232,188,193,53,149,255,97,247,226,57,165,251,118,247,5,174,206,212,25,180,3,0,172
618+  6CDB 26 E6 4E 33
618+  6CDF 3F E8 BC C1
618+  6CE3 35 95 FF 61
618+  6CE7 F7 E2 39 A5
618+  6CEB FB 76 F7 05
618+  6CEF AE CE D4 19
618+  6CF3 B4 03 00 AC
619+  6CF7 98 E1 7F 35                          db	152,225,127,53,63,145,23,247,19,206,145,57,80,119,236,224,198,200,108,220,238,192,185,64,90,31,106,136,159,179,187,28
619+  6CFB 3F 91 17 F7
619+  6CFF 13 CE 91 39
619+  6D03 50 77 EC E0
619+  6D07 C6 C8 6C DC
619+  6D0B EE C0 B9 40
619+  6D0F 5A 1F 6A 88
619+  6D13 9F B3 BB 1C
620+  6D17 DE 1D 7B 36                          db	222,29,123,54,170,228,5,98,252,47,61,200,64,179,75,96,207,126,251,234,91,65,221,0,187,127,219,201,236,2,201,97
620+  6D1B AA E4 05 62
620+  6D1F FC 2F 3D C8
620+  6D23 40 B3 4B 60
620+  6D27 CF 7E FB EA
620+  6D2B 5B 41 DD 00
620+  6D2F BB 7F DB C9
620+  6D33 EC 02 C9 61
621+  6D37 D4 EC F3 1F                          db	212,236,243,31,94,251,209,195,109,28,247,214,102,95,162,116,128,28,0,131,161,41,174,188,209,31,224,63,24,58,6,195
621+  6D3B 5E FB D1 C3
621+  6D3F 6D 1C F7 D6
621+  6D43 66 5F A2 74
621+  6D47 80 1C 00 83
621+  6D4B A1 29 AE BC
621+  6D4F D1 1F E0 3F
621+  6D53 18 3A 06 C3
622+  6D57 9D E0 0A CD                          db	157,224,10,205,42,159,6,196,31,220,155,31,169,127,29,125,215,3,119,4,99,128,228,91,32,232,196,70,63,31,179,126
622+  6D5B 2A 9F 06 C4
622+  6D5F 1F DC 9B 1F
622+  6D63 A9 7F 1D 7D
622+  6D67 D7 03 77 04
622+  6D6B 63 80 E4 5B
622+  6D6F 20 E8 C4 46
622+  6D73 3F 1F B3 7E
623+  6D77 F7 19 63 A4                          db	247,25,99,164,29,96,59,63,98,62,221,42,31,75,172,31,208,26,187,81,62,226,226,95,64,31,127,208,61,191,115,32
623+  6D7B 1D 60 3B 3F
623+  6D7F 62 3E DD 2A
623+  6D83 1F 4B AC 1F
623+  6D87 D0 1A BB 51
623+  6D8B 3E E2 E2 5F
623+  6D8F 40 1F 7F D0
623+  6D93 3D BF 73 20
624+  6D97 2A 1F 91 1F                          db	42,31,145,31,141,1,251,187,63,251,212,38,173,94,61,194,14,232,6,146,244,240,31,158,222,197,131,185,62,160,226,90
624+  6D9B 8D 01 FB BB
624+  6D9F 3F FB D4 26
624+  6DA3 AD 5E 3D C2
624+  6DA7 0E E8 06 92
624+  6DAB F4 F0 1F 9E
624+  6DAF DE C5 83 B9
624+  6DB3 3E A0 E2 5A
625+  6DB7 B3 8A 76 1F                          db	179,138,118,31,191,58,242,101,66,204,72,248,31,127,128,127,5,4,36,141,220,175,130,31,123,3,240,55,132,208,253,102
625+  6DBB BF 3A F2 65
625+  6DBF 42 CC 48 F8
625+  6DC3 1F 7F 80 7F
625+  6DC7 05 04 24 8D
625+  6DCB DC AF 82 1F
625+  6DCF 7B 03 F0 37
625+  6DD3 84 D0 FD 66
626+  6DD7 6E 1F E2 40                          db	110,31,226,64,224,179,178,62,115,38,214,31,232,175,175,196,26,238,109,247,251,8,63,171,252,240,126,193,193,138,38,95
626+  6DDB E0 B3 B2 3E
626+  6DDF 73 26 D6 1F
626+  6DE3 E8 AF AF C4
626+  6DE7 1A EE 6D F7
626+  6DEB FB 08 3F AB
626+  6DEF FC F0 7E C1
626+  6DF3 C1 8A 26 5F
627+  6DF7 1E 7C 58 55                          db	30,124,88,85,2,148,20,209,251,247,117,20,31,211,1,134,225,133,216,31,177,89,253,106,39,196,143,143,3,67,40,72
627+  6DFB 02 94 14 D1
627+  6DFF FB F7 75 14
627+  6E03 1F D3 01 86
627+  6E07 E1 85 D8 1F
627+  6E0B B1 59 FD 6A
627+  6E0F 27 C4 8F 8F
627+  6E13 03 43 28 48
628+  6E17 73 DF 68 A1                          db	115,223,104,161,61,2,201,83,179,42,31,220,87,171,61,33,32,188,31,148,123,122,253,53,179,135,208,95,123,62,203,255
628+  6E1B 3D 02 C9 53
628+  6E1F B3 2A 1F DC
628+  6E23 57 AB 3D 21
628+  6E27 20 BC 1F 94
628+  6E2B 7B 7A FD 35
628+  6E2F B3 87 D0 5F
628+  6E33 7B 3E CB FF
629+  6E37 1C 23 91 1D                          db	28,35,145,29,7,5,224,138,152,51,239,0,126,63,251,19,124,144,169,102,206,131,128,125,150,30,64,158,245,63,115,196
629+  6E3B 07 05 E0 8A
629+  6E3F 98 33 EF 00
629+  6E43 7E 3F FB 13
629+  6E47 7C 90 A9 66
629+  6E4B CE 83 80 7D
629+  6E4F 96 1E 40 9E
629+  6E53 F5 3F 73 C4
630+  6E57 DE 1C 3E 0A                          db	222,28,62,10,132,175,96,62,27,137,128,122,19,232,25,251,47,125,184,149,200,118,31,120,248,20,163,242,23,144,30,88
630+  6E5B 84 AF 60 3E
630+  6E5F 1B 89 80 7A
630+  6E63 13 E8 19 FB
630+  6E67 2F 7D B8 95
630+  6E6B C8 76 1F 78
630+  6E6F F8 14 A3 F2
630+  6E73 17 90 1E 58
631+  6E77 55 BF 5F 3E                          db	85,191,95,62,21,227,72,129,244,124,30,168,50,125,31,4,3,75,135,200,0,161,157,214,0,196,160,18,129,183,55,132
631+  6E7B 15 E3 48 81
631+  6E7F F4 7C 1E A8
631+  6E83 32 7D 1F 04
631+  6E87 03 4B 87 C8
631+  6E8B 00 A1 9D D6
631+  6E8F 00 C4 A0 12
631+  6E93 81 B7 37 84
632+  6E97 75 5E 71 75                          db	117,94,113,117,173,245,23,13,206,63,62,63,230,211,214,62,24,152,75,63,91,250,84,19,166,206,60,170,2,176,109,129
632+  6E9B AD F5 17 0D
632+  6E9F CE 3F 3E 3F
632+  6EA3 E6 D3 D6 3E
632+  6EA7 18 98 4B 3F
632+  6EAB 5B FA 54 13
632+  6EAF A6 CE 3C AA
632+  6EB3 02 B0 6D 81
633+  6EB7 3C 10 B7 32                          db	60,16,183,50,165,90,55,233,234,0,196,155,10,65,238,6,175,158,76,4,228,109,200,11,25,68,197,106,150,31,239,47
633+  6EBB A5 5A 37 E9
633+  6EBF EA 00 C4 9B
633+  6EC3 0A 41 EE 06
633+  6EC7 AF 9E 4C 04
633+  6ECB E4 6D C8 0B
633+  6ECF 19 44 C5 6A
633+  6ED3 96 1F EF 2F
634+  6ED7 3E FE 1E 1E                          db	62,254,30,30,198,62,172,140,236,4,132,201,34,149,234,106,173,242,227,90,62,207,171,158,12,203,123,248,207,141,204,36
634+  6EDB C6 3E AC 8C
634+  6EDF EC 04 84 C9
634+  6EE3 22 95 EA 6A
634+  6EE7 AD F2 E3 5A
634+  6EEB 3E CF AB 9E
634+  6EEF 0C CB 7B F8
634+  6EF3 CF 8D CC 24
635+  6EF7 FF B4 1F BA                          db	255,180,31,186,63,96,62,246,19,34,63,212,240,95,137,241,62,146,182,200,148,159,57,64,63,62,34,103,5,40,196,92
635+  6EFB 3F 60 3E F6
635+  6EFF 13 22 3F D4
635+  6F03 F0 5F 89 F1
635+  6F07 3E 92 B6 C8
635+  6F0B 94 9F 39 40
635+  6F0F 3F 3E 22 67
635+  6F13 05 28 C4 5C
636+  6F17 8A B0 81 2A                          db	138,176,129,42,200,236,31,65,186,234,28,15,142,186,240,62,250,223,4,220,89,5,187,4,212,41,204,62,51,170,230,246
636+  6F1B C8 EC 1F 41
636+  6F1F BA EA 1C 0F
636+  6F23 8E BA F0 3E
636+  6F27 FA DF 04 DC
636+  6F2B 59 05 BB 04
636+  6F2F D4 29 CC 3E
636+  6F33 33 AA E6 F6
637+  6F37 CA BC 61 62                          db	202,188,97,98,103,72,236,221,56,76,10,117,61,29,2,255,111,52,109,63,85,5,33,100,251,172,194,189,253,62,27,60
637+  6F3B 67 48 EC DD
637+  6F3F 38 4C 0A 75
637+  6F43 3D 1D 02 FF
637+  6F47 6F 34 6D 3F
637+  6F4B 55 05 21 64
637+  6F4F FB AC C2 BD
637+  6F53 FD 3E 1B 3C
638+  6F57 7C 97 B3 04                          db	124,151,179,4,102,240,132,250,63,122,62,125,204,7,26,29,194,159,239,31,162,208,104,134,207,186,45,32,126,190,96,69
638+  6F5B 66 F0 84 FA
638+  6F5F 3F 7A 3E 7D
638+  6F63 CC 07 1A 1D
638+  6F67 C2 9F EF 1F
638+  6F6B A2 D0 68 86
638+  6F6F CF BA 2D 20
638+  6F73 7E BE 60 45
639+  6F77 C7 EA 88 0D                          db	199,234,136,13,171,171,62,37,43,124,232,80,196,218,248,63,65,3,239,22,140,107,40,35,161,193,243,31,0,148,188,82
639+  6F7B AB AB 3E 25
639+  6F7F 2B 7C E8 50
639+  6F83 C4 DA F8 3F
639+  6F87 41 03 EF 16
639+  6F8B 8C 6B 28 23
639+  6F8F A1 C1 F3 1F
639+  6F93 00 94 BC 52
640+  6F97 AC 2E 9E 3A                          db	172,46,158,58,85,218,28,129,47,203,60,40,173,126,94,117,195,156,179,155,193,203,190,7,132,61,221,58,62,201,39,94
640+  6F9B 55 DA 1C 81
640+  6F9F 2F CB 3C 28
640+  6FA3 AD 7E 5E 75
640+  6FA7 C3 9C B3 9B
640+  6FAB C1 CB BE 07
640+  6FAF 84 3D DD 3A
640+  6FB3 3E C9 27 5E
641+  6FB7 54 41 D0 FF                          db	84,65,208,255,124,19,208,18,254,84,58,153,237,215,4,16,94,177,23,148,31,148,252,124,247,7,19,31,87,58,125,65
641+  6FBB 7C 13 D0 12
641+  6FBF FE 54 3A 99
641+  6FC3 ED D7 04 10
641+  6FC7 5E B1 17 94
641+  6FCB 1F 94 FC 7C
641+  6FCF F7 07 13 1F
641+  6FD3 57 3A 7D 41
642+  6FD7 9D 55 40 5E                          db	157,85,64,94,176,28,212,179,166,148,90,104,142,62,72,127,99,186,62,112,105,239,125,94,42,13,212,104,212,188,148,172
642+  6FDB B0 1C D4 B3
642+  6FDF A6 94 5A 68
642+  6FE3 8E 3E 48 7F
642+  6FE7 63 BA 3E 70
642+  6FEB 69 EF 7D 5E
642+  6FEF 2A 0D D4 68
642+  6FF3 D4 BC 94 AC
643+  6FF7 C0 3F 1F 2A                          db	192,63,31,42,142,9,122,62,36,215,221,236,41,235,63,29,62,3,125,188,72,20,239,234,0,125,125,23,87,12,94,68
643+  6FFB 8E 09 7A 3E
643+  6FFF 24 D7 DD EC
643+  7003 29 EB 3F 1D
643+  7007 3E 03 7D BC
643+  700B 48 14 EF EA
643+  700F 00 7D 7D 17
643+  7013 57 0C 5E 44
644+  7017 4A 7C BC B3                          db	74,124,188,179,121,104,31,204,185,91,63,62,57,0,94,89,200,240,58,124,63,2,252,31,111,168,177,223,239,63,62,4
644+  701B 79 68 1F CC
644+  701F B9 5B 3F 3E
644+  7023 39 00 5E 59
644+  7027 C8 F0 3A 7C
644+  702B 3F 02 FC 1F
644+  702F 6F A8 B1 DF
644+  7033 EF 3F 3E 04
645+  7037 91 CB 70 BE                          db	145,203,112,190,250,16,41,29,254,97,40,18,174,31,63,179,62,253,146,31,190,99,31,5,186,30,63,151,46,23,250,63
645+  703B FA 10 29 1D
645+  703F FE 61 28 12
645+  7043 AE 1F 3F B3
645+  7047 3E FD 92 1F
645+  704B BE 63 1F 05
645+  704F BA 1E 3F 97
645+  7053 2E 17 FA 3F
646+  7057 02 75 91 8B                          db	2,117,145,139,234,31,79,217,195,158,127,232,113,242,40,254,123,103,62,188,94,141,42,126,223,232,25,21,124,188,192,126
646+  705B EA 1F 4F D9
646+  705F C3 9E 7F E8
646+  7063 71 F2 28 FE
646+  7067 7B 67 3E BC
646+  706B 5E 8D 2A 7E
646+  706F DF E8 19 15
646+  7073 7C BC C0 7E
647+  7077 F2 18 4E F3                          db	242,24,78,243,62,41,171,31,140,43,49,181,186,250,9,39,185,43,37,231,94,182,202,19,144,141,168,133,58,126,25,118
647+  707B 3E 29 AB 1F
647+  707F 8C 2B 31 B5
647+  7083 BA FA 09 27
647+  7087 B9 2B 25 E7
647+  708B 5E B6 CA 13
647+  708F 90 8D A8 85
647+  7093 3A 7E 19 76
648+  7097 C8 30 3E 8C                          db	200,48,62,140,137,31,237,17,203,235,158,250,58,63,207,178,64,152,157,37,31,174,42,114,187,48,33,219,95,14,45,146
648+  709B 89 1F ED 11
648+  709F CB EB 9E FA
648+  70A3 3A 3F CF B2
648+  70A7 40 98 9D 25
648+  70AB 1F AE 2A 72
648+  70AF BB 30 21 DB
648+  70B3 5F 0E 2D 92
649+  70B7 13 26 3F A5                          db	19,38,63,165,43,157,122,102,172,31,131,111,205,226,121,31,20,108,32,199,44,149,156,98,3,82,94,192,88,139,150,40
649+  70BB 2B 9D 7A 66
649+  70BF AC 1F 83 6F
649+  70C3 CD E2 79 1F
649+  70C7 14 6C 20 C7
649+  70CB 2C 95 9C 62
649+  70CF 03 52 5E C0
649+  70D3 58 8B 96 28
650+  70D7 B5 36 24 E2                          db	181,54,36,226,172,250,86,247,215,63,15,127,95,39,40,74,37,226,62,137,94,164,130,171,32,178,46,28,247,118,28,51
650+  70DB AC FA 56 F7
650+  70DF D7 3F 0F 7F
650+  70E3 5F 27 28 4A
650+  70E7 25 E2 3E 89
650+  70EB 5E A4 82 AB
650+  70EF 20 B2 2E 1C
650+  70F3 F7 76 1C 33
651+  70F7 22 17 5E 8D                          db	34,23,94,141,163,141,223,165,194,197,162,56,46,209,98,190,94,20,94,64,65,143,176,34,184,31,203,94,177,126,27,231
651+  70FB A3 8D DF A5
651+  70FF C2 C5 A2 38
651+  7103 2E D1 62 BE
651+  7107 5E 14 5E 40
651+  710B 41 8F B0 22
651+  710F B8 1F CB 5E
651+  7113 B1 7E 1B E7
652+  7117 CA 57 BE 56                          db	202,87,190,86,207,45,197,98,228,0,207,59,212,75,189,110,0,0,1
652+  711B CF 2D C5 62
652+  711F E4 00 CF 3B
652+  7123 D4 4B BD 6E
652+  7127 00 00 01
653+  712A              mp_soccer
654+  712A 20                                   db	32			; A sprite szélessége byte-okban
655+  712B 78                                   db	120			; A sprite magassága
656+  712C C3 82 87 00                          db	195,130,135,0,192,0,13,22,29,194,192,0,193,134,238,61,0,24,62,72,106,30,63,133,210,64,149,240,31,6,179,62
656+  7130 C0 00 0D 16
656+  7134 1D C2 C0 00
656+  7138 C1 86 EE 3D
656+  713C 00 18 3E 48
656+  7140 6A 1E 3F 85
656+  7144 D2 40 95 F0
656+  7148 1F 06 B3 3E
657+  714C 3F 3A A2 1D                          db	63,58,162,29,63,106,22,64,223,55,63,0,34,194,0,167,64,194,149,58,217,0,3,106,106,9,185,64,194,62,184,31
657+  7150 3F 6A 16 40
657+  7154 DF 37 3F 00
657+  7158 22 C2 00 A7
657+  715C 40 C2 95 3A
657+  7160 D9 00 03 6A
657+  7164 6A 09 B9 40
657+  7168 C2 3E B8 1F
658+  716C 04 A2 1F D3                          db	4,162,31,211,107,46,94,227,31,9,96,183,247,238,31,94,110,31,96,113,60,123,251,127,50,31,194,65,26,127,149,127
658+  7170 6B 2E 5E E3
658+  7174 1F 09 60 B7
658+  7178 F7 EE 1F 5E
658+  717C 6E 1F 60 71
658+  7180 3C 7B FB 7F
658+  7184 32 1F C2 41
658+  7188 1A 7F 95 7F
659+  718C 73 1F 80 C1                          db	115,31,128,193,247,183,255,79,251,31,97,185,107,63,191,197,9,65,31,211,127,255,247,191,56,219,202,31,213,180,30,63
659+  7190 F7 B7 FF 4F
659+  7194 FB 1F 61 B9
659+  7198 6B 3F BF C5
659+  719C 09 41 1F D3
659+  71A0 7F FF F7 BF
659+  71A4 38 DB CA 1F
659+  71A8 D5 B4 1E 3F
660+  71AC C2 E3 D7 09                          db	194,227,215,9,251,255,123,123,87,63,131,31,233,91,31,255,82,31,67,19,31,191,183,133,159,21,186,185,126,191,81,37
660+  71B0 FB FF 7B 7B
660+  71B4 57 3F 83 1F
660+  71B8 E9 5B 1F FF
660+  71BC 52 1F 43 13
660+  71C0 1F BF B7 85
660+  71C4 9F 15 BA B9
660+  71C8 7E BF 51 25
661+  71CC 5F 60 C2 9E                          db	95,96,194,158,112,159,150,31,171,29,31,32,184,31,224,159,95,66,31,28,87,31,64,163,12,129,131,159,63,176,222,146
661+  71D0 70 9F 96 1F
661+  71D4 AB 1D 1F 20
661+  71D8 B8 1F E0 9F
661+  71DC 5F 42 1F 1C
661+  71E0 57 1F 40 A3
661+  71E4 0C 81 83 9F
661+  71E8 3F B0 DE 92
662+  71EC 1F C3 E0 3F                          db	31,195,224,63,142,159,11,247,42,30,186,31,165,10,13,142,159,11,216,41,170,31,64,142,136,56,159,33,72,31,144,159
662+  71F0 8E 9F 0B F7
662+  71F4 2A 1E BA 1F
662+  71F8 A5 0A 0D 8E
662+  71FC 9F 0B D8 29
662+  7200 AA 1F 40 8E
662+  7204 88 38 9F 21
662+  7208 48 1F 90 9F
663+  720C 4E 83 1F C0                          db	78,131,31,192,176,159,180,31,67,104,159,76,31,234,39,192,213,63,140,159,5,194,214,31,91,164,22,128,54,31,193,140
663+  7210 B0 9F B4 1F
663+  7214 43 68 9F 4C
663+  7218 1F EA 27 C0
663+  721C D5 3F 8C 9F
663+  7220 05 C2 D6 1F
663+  7224 5B A4 16 80
663+  7228 36 1F C1 8C
664+  722C 9F 04 C2 A0                          db	159,4,194,160,191,234,221,61,106,31,241,30,31,129,159,99,190,248,64,62,219,85,34,167,167,31,24,159,22,158,34,234
664+  7230 BF EA DD 3D
664+  7234 6A 1F F1 1E
664+  7238 1F 81 9F 63
664+  723C BE F8 40 3E
664+  7240 DB 55 22 A7
664+  7244 A7 1F 18 9F
664+  7248 16 9E 22 EA
665+  724C D4 EA C4 A3                          db	212,234,196,163,192,191,44,192,126,160,99,2,159,223,31,253,20,1,98,155,253,92,189,31,224,159,43,156,157,194,126,254
665+  7250 C0 BF 2C C0
665+  7254 7E A0 63 02
665+  7258 9F DF 1F FD
665+  725C 14 01 62 9B
665+  7260 FD 5C BD 1F
665+  7264 E0 9F 2B 9C
665+  7268 9D C2 7E FE
666+  726C 6A 95 CB 00                          db	106,149,203,0,212,254,69,143,159,10,190,2,127,232,69,190,124,213,62,63,80,159,38,193,63,215,64,234,31,252,63,126
666+  7270 D4 FE 45 8F
666+  7274 9F 0A BE 02
666+  7278 7F E8 45 BE
666+  727C 7C D5 3E 3F
666+  7280 50 9F 26 C1
666+  7284 3F D7 40 EA
666+  7288 1F FC 3F 7E
667+  728C 00 78 9F 5A                          db	0,120,159,90,220,36,189,63,197,161,127,58,130,200,159,4,129,131,235,31,191,63,249,0,126,228,31,159,2,106,67,33
667+  7290 DC 24 BD 3F
667+  7294 C5 A1 7F 3A
667+  7298 82 C8 9F 04
667+  729C 81 83 EB 1F
667+  72A0 BF 3F F9 00
667+  72A4 7E E4 1F 9F
667+  72A8 02 6A 43 21
668+  72AC BC 65 3F 44                          db	188,101,63,68,127,216,31,159,9,43,193,193,210,31,254,89,31,224,205,95,96,159,106,79,66,63,202,56,159,233,189,229
668+  72B0 7F D8 1F 9F
668+  72B4 09 2B C1 C1
668+  72B8 D2 1F FE 59
668+  72BC 1F E0 CD 5F
668+  72C0 60 9F 6A 4F
668+  72C4 42 3F CA 38
668+  72C8 9F E9 BD E5
669+  72CC 1F 9F 0C 80                          db	31,159,12,128,39,63,75,126,63,104,10,148,128,159,19,66,194,67,165,31,127,63,140,159,13,62,195,37,127,140,250,169
669+  72D0 27 3F 4B 7E
669+  72D4 3F 68 0A 94
669+  72D8 80 9F 13 42
669+  72DC C2 43 A5 1F
669+  72E0 7F 3F 8C 9F
669+  72E4 0D 3E C3 25
669+  72E8 7F 8C FA A9
670+  72EC 5F 7E EC 3F                          db	95,126,236,63,159,61,4,61,66,75,31,104,20,72,189,254,18,55,193,63,59,251,97,190,105,127,62,90,216,164,31,8
670+  72F0 9F 3D 04 3D
670+  72F4 42 4B 1F 68
670+  72F8 14 48 BD FE
670+  72FC 12 37 C1 3F
670+  7300 3B FB 61 BE
670+  7304 69 7F 3E 5A
670+  7308 D8 A4 1F 08
671+  730C 49 3E 3F 2A                          db	73,62,63,42,153,222,63,253,209,164,31,104,104,250,30,154,44,129,4,148,148,182,22,212,194,29,3,238,62,161,67,158
671+  7310 99 DE 3F FD
671+  7314 D1 A4 1F 68
671+  7318 68 FA 1E 9A
671+  731C 2C 81 04 94
671+  7320 94 B6 16 D4
671+  7324 C2 1D 03 EE
671+  7328 3E A1 43 9E
672+  732C 1F C2 BE D6                          db	31,194,190,214,63,61,221,205,253,0,232,29,63,133,128,223,106,63,94,96,250,234,150,63,38,31,242,126,63,104,61,222
672+  7330 3F 3D DD CD
672+  7334 FD 00 E8 1D
672+  7338 3F 85 80 DF
672+  733C 6A 3F 5E 60
672+  7340 FA EA 96 3F
672+  7344 26 1F F2 7E
672+  7348 3F 68 3D DE
673+  734C D7 68 82 22                          db	215,104,130,34,61,149,146,63,131,146,192,62,96,63,126,149,62,62,138,190,10,26,183,64,66,63,208,0,129,220,162,122
673+  7350 3D 95 92 3F
673+  7354 83 92 C0 3E
673+  7358 60 3F 7E 95
673+  735C 3E 3E 8A BE
673+  7360 0A 1A B7 40
673+  7364 42 3F D0 00
673+  7368 81 DC A2 7A
674+  736C 08 0C 81 2A                          db	8,12,129,42,63,67,192,234,50,53,74,95,8,227,76,241,63,192,125,192,54,121,215,0,73,11,199,31,13,128,12,153
674+  7370 3F 43 C0 EA
674+  7374 32 35 4A 5F
674+  7378 08 E3 4C F1
674+  737C 3F C0 7D C0
674+  7380 36 79 D7 00
674+  7384 49 0B C7 1F
674+  7388 0D 80 0C 99
675+  738C B5 3F 3C E1                          db	181,63,60,225,10,254,20,63,194,158,187,249,56,35,63,173,195,131,60,160,114,56,163,63,148,115,131,62,157,161,164,195
675+  7390 0A FE 14 3F
675+  7394 C2 9E BB F9
675+  7398 38 23 3F AD
675+  739C C3 83 3C A0
675+  73A0 72 38 A3 3F
675+  73A4 94 73 83 3E
675+  73A8 9D A1 A4 C3
676+  73AC 15 3D F1 3F                          db	21,61,241,63,31,247,63,96,52,127,108,94,215,63,31,65,249,81,63,211,126,218,63,96,62,227,0,167,94,63,186,31
676+  73B0 1F F7 3F 60
676+  73B4 34 7F 6C 5E
676+  73B8 D7 3F 1F 41
676+  73BC F9 51 3F D3
676+  73C0 7E DA 3F 60
676+  73C4 3E E3 00 A7
676+  73C8 5E 3F BA 1F
677+  73CC C3 18 F9 7E                          db	195,24,249,126,130,255,96,128,227,61,240,126,22,66,66,243,227,229,1,131,138,63,141,62,218,20,129,0,195,42,64,55
677+  73D0 82 FF 60 80
677+  73D4 E3 3D F0 7E
677+  73D8 16 42 42 F3
677+  73DC E3 E5 01 83
677+  73E0 8A 3F 8D 3E
677+  73E4 DA 14 81 00
677+  73E8 C3 2A 40 37
678+  73EC 3E 0B 39 42                          db	62,11,57,66,237,63,182,245,158,132,180,7,127,193,102,60,0,35,245,33,0,67,247,45,125,127,21,60,147,0,19,19
678+  73F0 ED 3F B6 F5
678+  73F4 9E 84 B4 07
678+  73F8 7F C1 66 3C
678+  73FC 00 23 F5 21
678+  7400 00 43 F7 2D
678+  7404 7D 7F 15 3C
678+  7408 93 00 13 13
679+  740C 5A 3F A5 D8                          db	90,63,165,216,192,79,62,237,17,57,237,2,38,152,249,129,61,179,18,243,121,179,79,22,124,222,41,59,60,57,244,3
679+  7410 C0 4F 3E ED
679+  7414 11 39 ED 02
679+  7418 26 98 F9 81
679+  741C 3D B3 12 F3
679+  7420 79 B3 4F 16
679+  7424 7C DE 29 3B
679+  7428 3C 39 F4 03
680+  742C 02 2C 93 65                          db	2,44,147,101,207,85,119,239,59,120,35,59,3,35,54,54,63,150,174,57,117,59,0,104,226,64,63,57,25,192,46,0
680+  7430 CF 55 77 EF
680+  7434 3B 78 23 3B
680+  7438 03 23 36 36
680+  743C 3F 96 AE 39
680+  7440 75 3B 00 68
680+  7444 E2 40 3F 39
680+  7448 19 C0 2E 00
681+  744C D4 4B EC 03                          db	212,75,236,3,148,109,54,121,35,5,28,181,62,54,38,104,173,47,172,4,236,35,58,6,60,122,19,21,58,104,180,61
681+  7450 94 6D 36 79
681+  7454 23 05 1C B5
681+  7458 3E 36 26 68
681+  745C AD 2F AC 04
681+  7460 EC 23 3A 06
681+  7464 3C 7A 13 15
681+  7468 3A 68 B4 3D
682+  746C 02 81 62 00                          db	2,129,98,0,148,240,2,1,158,54,28,28,20,103,103,9,62,103,210,47,44,110,52,108,25,4,95,123,60,61,96,44
682+  7470 94 F0 02 01
682+  7474 9E 36 1C 1C
682+  7478 14 67 67 09
682+  747C 3E 67 D2 2F
682+  7480 2C 6E 34 6C
682+  7484 19 04 5F 7B
682+  7488 3C 3D 60 2C
683+  748C 39 2C 8E 9B                          db	57,44,142,155,12,25,72,155,105,35,174,0,57,214,2,148,69,209,219,63,38,1,38,67,201,63,231,66,231,53,183,3
683+  7490 0C 19 48 9B
683+  7494 69 23 AE 00
683+  7498 39 D6 02 94
683+  749C 45 D1 DB 3F
683+  74A0 26 01 26 43
683+  74A4 C9 3F E7 42
683+  74A8 E7 35 B7 03
684+  74AC 79 79 3F 00                          db	121,121,63,0,89,44,89,166,179,57,12,179,197,0,89,129,9,6,48,132,28,132,35,7,132,3,129,115,209,89,148,115
684+  74B0 59 2C 59 A6
684+  74B4 B3 39 0C B3
684+  74B8 C5 00 59 81
684+  74BC 09 06 30 84
684+  74C0 1C 84 23 07
684+  74C4 84 03 81 73
684+  74C8 D1 59 94 73
685+  74CC 12 19 B6 0C                          db	18,25,182,12,12,59,89,28,139,64,115,243,182,52,241,122,104,25,6,83,131,2,226,121,243,166,166,14,3,121,166,142
685+  74D0 0C 3B 59 1C
685+  74D4 8B 40 73 F3
685+  74D8 B6 34 F1 7A
685+  74DC 68 19 06 53
685+  74E0 83 02 E2 79
685+  74E4 F3 A6 A6 0E
685+  74E8 03 79 A6 8E
686+  74EC 39 58 B1 3C                          db	57,88,177,60,192,131,166,89,160,163,217,106,132,42,132,9,140,64,163,115,28,62,28,163,0,209,115,77,12,166,54,182
686+  74F0 C0 83 A6 59
686+  74F4 A0 A3 D9 6A
686+  74F8 84 2A 84 09
686+  74FC 8C 40 A3 73
686+  7500 1C 3E 1C A3
686+  7504 00 D1 73 4D
686+  7508 0C A6 36 B6
687+  750C B6 C0 02 73                          db	182,192,2,115,54,12,92,185,252,24,124,185,6,232,1,44,72,83,66,72,12,135,182,122,131,63,166,25,44,104,166,150
687+  7510 36 0C 5C B9
687+  7514 FC 18 7C B9
687+  7518 06 E8 01 2C
687+  751C 48 53 42 48
687+  7520 0C 87 B6 7A
687+  7524 83 3F A6 19
687+  7528 2C 68 A6 96
688+  752C 27 39 40 CA                          db	39,57,64,202,104,63,132,240,112,136,217,127,129,14,38,35,152,126,38,12,190,120,88,133,4,204,140,140,12,172,127,44
688+  7530 68 3F 84 F0
688+  7534 70 88 D9 7F
688+  7538 81 0E 26 23
688+  753C 98 7E 26 0C
688+  7540 BE 78 58 85
688+  7544 04 CC 8C 8C
688+  7548 0C AC 7F 2C
689+  754C 80 07 0C 53                          db	128,7,12,83,6,53,191,51,44,10,14,76,111,89,59,44,30,1,97,12,242,226,56,232,35,193,193,38,128,176,182,243
689+  7550 06 35 BF 33
689+  7554 2C 0A 0E 4C
689+  7558 6F 59 3B 2C
689+  755C 1E 01 61 0C
689+  7560 F2 E2 38 E8
689+  7564 23 C1 C1 26
689+  7568 80 B0 B6 F3
690+  756C 36 CF 71 94                          db	54,207,113,148,209,18,82,15,148,55,63,110,29,94,40,9,57,229,106,51,179,64,108,89,121,63,113,226,158,66,251,183
690+  7570 D1 12 52 0F
690+  7574 94 37 3F 6E
690+  7578 1D 5E 28 09
690+  757C 39 E5 6A 33
690+  7580 B3 40 6C 59
690+  7584 79 3F 71 E2
690+  7588 9E 42 FB B7
691+  758C A5 CC BE 1F                          db	165,204,190,31,90,191,125,37,110,192,14,6,130,177,71,0,243,0,36,31,133,145,227,46,179,131,190,104,62,212,111,179
691+  7590 5A BF 7D 25
691+  7594 6E C0 0E 06
691+  7598 82 B1 47 00
691+  759C F3 00 24 1F
691+  75A0 85 91 E3 2E
691+  75A4 B3 83 BE 68
691+  75A8 3E D4 6F B3
692+  75AC AE 4A 79 1C                          db	174,74,121,28,150,31,129,150,87,101,216,130,225,252,253,0,7,0,89,45,28,206,31,208,72,213,72,31,226,66,155,59
692+  75B0 96 1F 81 96
692+  75B4 57 65 D8 82
692+  75B8 E1 FC FD 00
692+  75BC 07 00 59 2D
692+  75C0 1C CE 1F D0
692+  75C4 48 D5 48 1F
692+  75C8 E2 42 9B 3B
693+  75CC 04 FA B5 3E                          db	4,250,181,62,31,210,52,171,174,58,255,0,84,170,194,132,116,0,87,201,7,255,179,0,173,90,171,2,119,211,4,213
693+  75D0 1F D2 34 AB
693+  75D4 AE 3A FF 00
693+  75D8 54 AA C2 84
693+  75DC 74 00 57 C9
693+  75E0 07 FF B3 00
693+  75E4 AD 5A AB 02
693+  75E8 77 D3 04 D5
694+  75EC CF 74 1C 91                          db	207,116,28,145,29,129,66,218,0,101,93,121,28,17,15,63,5,0,46,12,207,0,31,96,131,174,168,3,82,31,33,77
694+  75F0 1D 81 42 DA
694+  75F4 00 65 5D 79
694+  75F8 1C 11 0F 3F
694+  75FC 05 00 2E 0C
694+  7600 CF 00 1F 60
694+  7604 83 AE A8 03
694+  7608 52 1F 21 4D
695+  760C 13 08 4E 3F                          db	19,8,78,63,248,9,174,105,6,255,22,234,2,125,255,1,45,6,0,42,187,104,3,86,60,72,200,90,2,54,211,182
695+  7610 F8 09 AE 69
695+  7614 06 FF 16 EA
695+  7618 02 7D FF 01
695+  761C 2D 06 00 2A
695+  7620 BB 68 03 56
695+  7624 3C 48 C8 5A
695+  7628 02 36 D3 B6
696+  762C C3 49 ED 36                          db	195,73,237,54,248,101,197,75,3,205,213,28,88,39,245,253,65,1,151,136,4,109,181,73,197,236,0,16,12,206,233,150
696+  7630 F8 65 C5 4B
696+  7634 03 CD D5 1C
696+  7638 58 27 F5 FD
696+  763C 41 01 97 88
696+  7640 04 6D B5 49
696+  7644 C5 EC 00 10
696+  7648 0C CE E9 96
697+  764C 29 E6 4F 26                          db	41,230,79,38,9,102,184,60,188,178,246,212,177,209,209,123,28,61,10,209,128,61,12,132,72,194,38,50,121,226,247,30
697+  7650 09 66 B8 3C
697+  7654 BC B2 F6 D4
697+  7658 B1 D1 D1 7B
697+  765C 1C 3D 0A D1
697+  7660 80 3D 0C 84
697+  7664 48 C2 26 32
697+  7668 79 E2 F7 1E
698+  766C 68 B3 2C 04                          db	104,179,44,4,191,84,73,83,204,129,243,57,25,19,226,83,250,249,57,211,121,22,151,250,43,188,102,44,182,89,68,182
698+  7670 BF 54 49 53
698+  7674 CC 81 F3 39
698+  7678 19 13 E2 53
698+  767C FA F9 39 D3
698+  7680 79 16 97 FA
698+  7684 2B BC 66 2C
698+  7688 B6 59 44 B6
699+  768C F3 49 4C D1                          db	243,73,76,209,132,4,105,115,128,171,185,38,254,61,139,104,153,212,72,236,189,42,29,63,66,226,55,51,122,83,120,44
699+  7690 84 04 69 73
699+  7694 80 AB B9 26
699+  7698 FE 3D 8B 68
699+  769C 99 D4 48 EC
699+  76A0 BD 2A 1D 3F
699+  76A4 42 E2 37 33
699+  76A8 7A 53 78 2C
700+  76AC 19 45 CE 38                          db	25,69,206,56,226,72,78,167,7,204,22,38,190,180,242,158,72,125,35,215,182,62,126,243,77,16,212,129,12,115,124,92
700+  76B0 E2 48 4E A7
700+  76B4 07 CC 16 26
700+  76B8 BE B4 F2 9E
700+  76BC 48 7D 23 D7
700+  76C0 B6 3E 7E F3
700+  76C4 4D 10 D4 81
700+  76C8 0C 73 7C 5C
701+  76CC 85 01 F6 56                          db	133,1,246,86,86,93,33,182,89,89,159,192,114,210,74,132,245,82,75,131,146,28,218,6,190,0,174,13,171,251,190,253
701+  76D0 56 5D 21 B6
701+  76D4 59 59 9F C0
701+  76D8 72 D2 4A 84
701+  76DC F5 52 4B 83
701+  76E0 92 1C DA 06
701+  76E4 BE 00 AE 0D
701+  76E8 AB FB BE FD
702+  76EC F7 1A D1 B3                          db	247,26,209,179,169,115,195,30,54,51,130,143,28,14,68,98,38,80,60,115,125,152,0,93,0,247,44,166,195,197,109,41
702+  76F0 A9 73 C3 1E
702+  76F4 36 33 82 8F
702+  76F8 1C 0E 44 62
702+  76FC 26 50 3C 73
702+  7700 7D 98 00 5D
702+  7704 00 F7 2C A6
702+  7708 C3 C5 6D 29
703+  770C A6 79 87 15                          db	166,121,135,21,121,67,225,7,251,128,201,243,88,89,118,174,63,0,253,166,50,166,174,10,243,181,95,66,72,250,0,15
703+  7710 79 43 E1 07
703+  7714 FB 80 C9 F3
703+  7718 58 59 76 AE
703+  771C 3F 00 FD A6
703+  7720 32 A6 AE 0A
703+  7724 F3 B5 5F 42
703+  7728 48 FA 00 0F
704+  772C 93 17 9E 02                          db	147,23,158,2,127,63,64,1,171,187,6,54,194,128,181,127,131,237,1,149,111,1,141,101,251,134,128,1,253,194,250,186
704+  7730 7F 3F 40 01
704+  7734 AB BB 06 36
704+  7738 C2 80 B5 7F
704+  773C 83 ED 01 95
704+  7740 6F 01 8D 65
704+  7744 FB 86 80 01
704+  7748 FD C2 FA BA
705+  774C 33 5F 75 C3                          db	51,95,117,195,254,4,160,255,175,1,2,128,119,247,123,101,0,221,104,138,135,179,190,54,4,207,100,233,33,76,140,221
705+  7750 FE 04 A0 FF
705+  7754 AF 01 02 80
705+  7758 77 F7 7B 65
705+  775C 00 DD 68 8A
705+  7760 87 B3 BE 36
705+  7764 04 CF 64 E9
705+  7768 21 4C 8C DD
706+  776C 40 F7 AE 79                          db	64,247,174,121,250,3,63,255,253,156,150,231,215,128,14,12,88,245,245,174,54,119,30,119,221,239,12,22,245,13,255,245
706+  7770 FA 03 3F FF
706+  7774 FD 9C 96 E7
706+  7778 D7 80 0E 0C
706+  777C 58 F5 F5 AE
706+  7780 36 77 1E 77
706+  7784 DD EF 0C 16
706+  7788 F5 0D FF F5
707+  778C 7D FF 01 AE                          db	125,255,1,174,135,22,174,93,166,247,124,224,82,31,240,250,164,57,255,52,57,93,3,125,78,63,253,140,93,35,182,119
707+  7790 87 16 AE 5D
707+  7794 A6 F7 7C E0
707+  7798 52 1F F0 FA
707+  779C A4 39 FF 34
707+  77A0 39 5D 03 7D
707+  77A4 4E 3F FD 8C
707+  77A8 5D 23 B6 77
708+  77AC C8 72 A6 AE                          db	200,114,166,174,201,63,49,126,128,205,60,255,187,126,243,221,29,123,150,126,204,76,127,250,148,0,253,240,129,89,0,254
708+  77B0 C9 3F 31 7E
708+  77B4 80 CD 3C FF
708+  77B8 BB 7E F3 DD
708+  77BC 1D 7B 96 7E
708+  77C0 CC 4C 7F FA
708+  77C4 94 00 FD F0
708+  77C8 81 59 00 FE
709+  77CC 0F 20 00 30                          db	15,32,0,48,94,0,128,0,64
709+  77D0 5E 00 80 00
709+  77D4 40
710+  77D5              raster_runner
711+  77D5 20                                   db	32			; A sprite szélessége byte-okban
712+  77D6 78                                   db	120			; A sprite magassága
713+  77D7 40 43 C0 64                          db	64,67,192,100,0,212,252,46,31,204,160,0,220,252,236,204,133,26,31,196,27,252,177,0,29,200,192,64,9,172,29,220
713+  77DB 00 D4 FC 2E
713+  77DF 1F CC A0 00
713+  77E3 DC FC EC CC
713+  77E7 85 1A 1F C4
713+  77EB 1B FC B1 00
713+  77EF 1D C8 C0 40
713+  77F3 09 AC 1D DC
714+  77F7 1B 8C 0C 08                          db	27,140,12,8,72,192,132,12,254,31,28,45,29,72,27,63,36,115,90,29,192,46,31,94,28,5,43,29,0,79,3,29
714+  77FB 48 C0 84 0C
714+  77FF FE 1F 1C 2D
714+  7803 1D 48 1B 3F
714+  7807 24 73 5A 1D
714+  780B C0 2E 1F 5E
714+  780F 1C 05 2B 1D
714+  7813 00 4F 03 1D
715+  7817 97 11 4C EC                          db	151,17,76,236,29,197,0,83,29,63,66,0,149,9,12,223,62,121,30,21,29,75,31,129,0,178,9,76,76,195,212,0
715+  781B 1D C5 00 53
715+  781F 1D 3F 42 00
715+  7823 95 09 0C DF
715+  7827 3E 79 1E 15
715+  782B 1D 4B 1F 81
715+  782F 00 B2 09 4C
715+  7833 4C C3 D4 00
716+  7837 45 AC 48 1D                          db	69,172,72,29,127,66,85,3,0,41,63,140,91,236,104,33,232,217,31,91,33,66,127,140,33,187,99,0,141,31,237,0
716+  783B 7F 42 55 03
716+  783F 00 29 3F 8C
716+  7843 5B EC 68 21
716+  7847 E8 D9 1F 5B
716+  784B 21 42 7F 8C
716+  784F 21 BB 63 00
716+  7853 8D 1F ED 00
717+  7857 20 0C FF 61                          db	32,12,255,97,0,65,0,124,32,68,101,31,62,33,129,97,98,230,65,66,227,33,42,31,33,175,32,65,66,157,67,252
717+  785B 00 41 00 7C
717+  785F 20 44 65 1F
717+  7863 3E 21 81 61
717+  7867 62 E6 41 42
717+  786B E3 21 2A 1F
717+  786F 21 AF 20 41
717+  7873 42 9D 43 FC
718+  7877 19 1F 4F 20                          db	25,31,79,32,132,65,0,185,65,227,68,74,223,130,164,89,65,33,67,17,31,192,129,66,87,99,66,44,67,33,31,218
718+  787B 84 41 00 B9
718+  787F 41 E3 44 4A
718+  7883 DF 82 A4 59
718+  7887 41 21 43 11
718+  788B 1F C0 81 42
718+  788F 57 63 42 2C
718+  7893 43 21 1F DA
719+  7897 20 63 4C 28                          db	32,99,76,40,133,33,2,255,39,67,194,66,146,67,58,31,132,200,195,195,226,32,99,66,2,191,247,0,30,193,32,207
719+  789B 85 21 02 FF
719+  789F 27 43 C2 42
719+  78A3 92 43 3A 1F
719+  78A7 84 C8 C3 C3
719+  78AB E2 20 63 42
719+  78AF 02 BF F7 00
719+  78B3 1E C1 20 CF
720+  78B7 63 42 12 9F                          db	99,66,18,159,51,72,0,132,8,66,139,66,31,230,16,27,68,66,132,232,252,66,31,124,28,225,135,42,66,1,120,85
720+  78BB 33 48 00 84
720+  78BF 08 42 8B 42
720+  78C3 1F E6 10 1B
720+  78C7 44 42 84 E8
720+  78CB FC 42 1F 7C
720+  78CF 1C E1 87 2A
720+  78D3 42 01 78 55
721+  78D7 E9 00 78 63                          db	233,0,120,99,66,254,56,0,48,99,76,195,133,102,28,99,225,32,105,60,199,204,141,20,131,56,32,66,134,101,127,99
721+  78DB 42 FE 38 00
721+  78DF 30 63 4C C3
721+  78E3 85 66 1C 63
721+  78E7 E1 20 69 3C
721+  78EB C7 CC 8D 14
721+  78EF 83 38 20 42
721+  78F3 86 65 7F 63
722+  78F7 43 83 C9 20                          db	67,131,201,32,64,2,254,26,31,168,67,109,66,64,56,222,195,80,31,223,66,31,14,205,32,31,12,92,99,31,51,66
722+  78FB 40 02 FE 1A
722+  78FF 1F A8 43 6D
722+  7903 42 40 38 DE
722+  7907 C3 50 1F DF
722+  790B 42 1F 0E CD
722+  790F 20 1F 0C 5C
722+  7913 63 1F 33 42
723+  7917 A3 11 40 8E                          db	163,17,64,142,190,54,29,50,31,58,99,88,13,184,31,201,99,161,43,4,191,20,67,195,194,7,193,77,131,40,29,31
723+  791B BE 36 1D 32
723+  791F 1F 3A 63 58
723+  7923 0D B8 1F C9
723+  7927 63 A1 2B 04
723+  792B BF 14 43 C3
723+  792F C2 07 C1 4D
723+  7933 83 28 1D 1F
724+  7937 DC 55 1D 92                          db	220,85,29,146,32,66,6,50,191,132,149,252,82,232,204,140,122,191,209,209,220,167,27,220,253,33,172,145,141,128,145,253
724+  793B 20 42 06 32
724+  793F BF 84 95 FC
724+  7943 52 E8 CC 8C
724+  7947 7A BF D1 D1
724+  794B DC A7 1B DC
724+  794F FD 21 AC 91
724+  7953 8D 80 91 FD
725+  7957 A5 1F 91 26                          db	165,31,145,38,55,146,32,169,247,255,254,193,201,12,132,198,38,154,31,145,98,179,87,32,55,128,24,255,252,220,204,72
725+  795B 37 92 20 A9
725+  795F F7 FF FE C1
725+  7963 C9 0C 84 C6
725+  7967 26 9A 1F 91
725+  796B 62 B3 57 20
725+  796F 37 80 18 FF
725+  7973 FC DC CC 48
726+  7977 4C FE 23 FE                          db	76,254,35,254,64,105,30,245,53,84,76,121,64,25,97,140,196,113,63,187,30,0,92,129,159,63,24,173,63,31,220,23
726+  797B 40 69 1E F5
726+  797F 35 54 4C 79
726+  7983 40 19 61 8C
726+  7987 C4 71 3F BB
726+  798B 1E 00 5C 81
726+  798F 9F 3F 18 AD
726+  7993 3F 1F DC 17
727+  7997 3F 63 1E F3                          db	63,99,30,243,226,192,117,73,140,134,63,63,96,22,191,11,145,4,87,209,32,135,75,76,186,126,3,162,31,154,255,83
727+  799B E2 C0 75 49
727+  799F 8C 86 3F 3F
727+  79A3 60 16 BF 0B
727+  79A7 91 04 57 D1
727+  79AB 20 87 4B 4C
727+  79AF BA 7E 03 A2
727+  79B3 1F 9A FF 53
728+  79B7 5D FF FB 60                          db	93,255,251,96,73,220,133,62,62,96,132,137,31,74,145,32,209,91,251,63,236,60,238,58,31,113,191,224,152,98,51,148
728+  79BB 49 DC 85 3E
728+  79BF 3E 60 84 89
728+  79C3 1F 4A 91 20
728+  79C7 D1 5B FB 3F
728+  79CB EC 3C EE 3A
728+  79CF 1F 71 BF E0
728+  79D3 98 62 33 94
729+  79D7 09 FB E2 2A                          db	9,251,226,42,92,204,63,171,1,31,225,9,216,255,145,145,74,226,31,247,88,226,160,73,30,201,0,31,101,232,166,62
729+  79DB 5C CC 3F AB
729+  79DF 01 1F E1 09
729+  79E3 D8 FF 91 91
729+  79E7 4A E2 1F F7
729+  79EB 58 E2 A0 49
729+  79EF 1E C9 00 1F
729+  79F3 65 E8 A6 3E
730+  79F7 73 67 7C D5                          db	115,103,124,213,31,55,157,28,70,202,63,182,105,19,240,62,128,190,31,96,76,35,139,137,196,65,92,159,98,209,78,98
730+  79FB 1F 37 9D 1C
730+  79FF 46 CA 3F B6
730+  7A03 69 13 F0 3E
730+  7A07 80 BE 1F 60
730+  7A0B 4C 23 8B 89
730+  7A0F C4 41 5C 9F
730+  7A13 62 D1 4E 62
731+  7A17 A8 1F 1F 37                          db	168,31,31,55,106,61,140,0,202,130,103,218,158,94,239,31,63,33,95,76,0,31,181,223,158,167,157,8,179,175,31,22
731+  7A1B 6A 3D 8C 00
731+  7A1F CA 82 67 DA
731+  7A23 9E 5E EF 1F
731+  7A27 3F 21 5F 4C
731+  7A2B 00 1F B5 DF
731+  7A2F 9E A7 9D 08
731+  7A33 B3 AF 1F 16
732+  7A37 1E AB 3B 00                          db	30,171,59,0,93,132,29,113,31,94,71,131,220,27,58,178,31,129,255,98,119,20,31,196,171,28,62,186,199,132,234,31
732+  7A3B 5D 84 1D 71
732+  7A3F 1F 5E 47 83
732+  7A43 DC 1B 3A B2
732+  7A47 1F 81 FF 62
732+  7A4B 77 14 1F C4
732+  7A4F AB 1C 3E BA
732+  7A53 C7 84 EA 1F
733+  7A57 5C E8 3E BD                          db	92,232,62,189,241,227,73,200,31,162,126,187,183,198,21,174,63,31,201,162,204,8,209,31,253,247,63,62,101,225,54,63
733+  7A5B F1 E3 49 C8
733+  7A5F 1F A2 7E BB
733+  7A63 B7 C6 15 AE
733+  7A67 3F 1F C9 A2
733+  7A6B CC 08 D1 1F
733+  7A6F FD F7 3F 3E
733+  7A73 65 E1 36 3F
734+  7A77 FB 31 12 1F                          db	251,49,18,31,146,185,12,109,62,127,66,27,126,93,61,21,233,30,164,103,160,235,16,173,22,31,196,146,61,64,188,241
734+  7A7B 92 B9 0C 6D
734+  7A7F 3E 7F 42 1B
734+  7A83 7E 5D 3D 15
734+  7A87 E9 1E A4 67
734+  7A8B A0 EB 10 AD
734+  7A8F 16 1F C4 92
734+  7A93 3D 40 BC F1
735+  7A97 3F 27 F0 F0                          db	63,39,240,240,176,99,188,204,126,31,196,146,61,64,251,241,103,63,216,240,224,214,63,32,31,251,74,98,174,178,213,61
735+  7A9B B0 63 BC CC
735+  7A9F 7E 1F C4 92
735+  7AA3 3D 40 FB F1
735+  7AA7 67 3F D8 F0
735+  7AAB E0 D6 3F 20
735+  7AAF 1F FB 4A 62
735+  7AB3 AE B2 D5 3D
736+  7AB7 3E E3 E4 CC                          db	62,227,228,204,31,149,166,169,31,51,25,61,86,3,228,174,216,62,123,31,254,30,17,98,180,85,76,6,253,63,94,20
736+  7ABB 1F 95 A6 A9
736+  7ABF 1F 33 19 3D
736+  7AC3 56 03 E4 AE
736+  7AC7 D8 3E 7B 1F
736+  7ACB FE 1E 11 62
736+  7ACF B4 55 4C 06
736+  7AD3 FD 3F 5E 14
737+  7AD7 55 FF 1D DA                          db	85,255,29,218,164,31,145,60,173,58,159,24,238,193,89,226,210,94,144,167,191,31,110,119,31,51,68,238,60,61,151,252
737+  7ADB A4 1F 91 3C
737+  7ADF AD 3A 9F 18
737+  7AE3 EE C1 59 E2
737+  7AE7 D2 5E 90 A7
737+  7AEB BF 1F 6E 77
737+  7AEF 1F 33 44 EE
737+  7AF3 3C 3D 97 FC
738+  7AF7 1F B3 81 2D                          db	31,179,129,45,240,96,255,148,129,31,255,10,243,179,98,38,181,25,5,246,255,221,0,63,29,31,48,96,63,86,67,31
738+  7AFB F0 60 FF 94
738+  7AFF 81 1F FF 0A
738+  7B03 F3 B3 62 26
738+  7B07 B5 19 05 F6
738+  7B0B FF DD 00 3F
738+  7B0F 1D 1F 30 60
738+  7B13 3F 56 43 1F
739+  7B17 40 91 94 D2                          db	64,145,148,210,170,23,151,31,236,204,224,88,240,112,176,96,203,31,144,112,31,245,62,90,252,113,31,22,3,63,24,176
739+  7B1B AA 17 97 1F
739+  7B1F EC CC E0 58
739+  7B23 F0 70 B0 60
739+  7B27 CB 1F 90 70
739+  7B2B 1F F5 3E 5A
739+  7B2F FC 71 1F 16
739+  7B33 03 3F 18 B0
740+  7B37 70 A1 0C 1F                          db	112,161,12,31,48,176,205,220,255,155,94,102,76,152,84,124,89,63,48,48,142,191,31,112,216,63,115,255,43,145,17,177
740+  7B3B 30 B0 CD DC
740+  7B3F FF 9B 5E 66
740+  7B43 4C 98 54 7C
740+  7B47 59 3F 30 30
740+  7B4B 8E BF 1F 70
740+  7B4F D8 3F 73 FF
740+  7B53 2B 91 11 B1
741+  7B57 1B 3F AC 40                          db	27,63,172,64,218,111,218,63,63,26,31,120,144,35,223,80,157,85,57,213,126,63,141,218,239,156,63,216,90,31,164,25
741+  7B5B DA 6F DA 3F
741+  7B5F 3F 1A 1F 78
741+  7B63 90 23 DF 50
741+  7B67 9D 55 39 D5
741+  7B6B 7E 3F 8D DA
741+  7B6F EF 9C 3F D8
741+  7B73 5A 1F A4 19
742+  7B77 91 AA 3E 00                          db	145,170,62,0,90,192,153,75,183,210,5,63,224,48,112,48,177,31,132,253,187,31,188,116,140,221,183,108,63,24,221,59
742+  7B7B 5A C0 99 4B
742+  7B7F B7 D2 05 3F
742+  7B83 E0 30 70 30
742+  7B87 B1 1F 84 FD
742+  7B8B BB 1F BC 74
742+  7B8F 8C DD B7 6C
742+  7B93 3F 18 DD 3B
743+  7B97 41 1F 0A 48                          db	65,31,10,72,25,51,38,31,90,96,186,119,23,65,209,62,15,24,48,134,187,255,10,112,63,145,202,53,43,192,200,96
743+  7B9B 19 33 26 1F
743+  7B9F 5A 60 BA 77
743+  7BA3 17 41 D1 3E
743+  7BA7 0F 18 30 86
743+  7BAB BB FF 0A 70
743+  7BAF 3F 91 CA 35
743+  7BB3 2B C0 C8 60
744+  7BB7 E2 32 17 C3                          db	226,50,23,195,63,211,49,31,112,63,188,30,45,176,48,187,96,218,74,229,42,64,73,72,95,131,227,112,133,91,62,240
744+  7BBB 3F D3 31 1F
744+  7BBF 70 3F BC 1E
744+  7BC3 2D B0 30 BB
744+  7BC7 60 DA 4A E5
744+  7BCB 2A 40 49 48
744+  7BCF 5F 83 E3 70
744+  7BD3 85 5B 3E F0
745+  7BD7 28 8D BE 60                          db	40,141,190,96,0,205,249,140,123,127,0,112,63,203,96,72,72,62,195,231,206,37,96,105,96,153,105,248,79,65,72,125
745+  7BDB 00 CD F9 8C
745+  7BDF 7B 7F 00 70
745+  7BE3 3F CB 60 48
745+  7BE7 48 3E C3 E7
745+  7BEB CE 25 60 69
745+  7BEF 60 99 69 F8
745+  7BF3 4F 41 48 7D
746+  7BF7 40 D8 3F B0                          db	64,216,63,176,128,73,62,158,236,94,48,171,31,189,139,156,138,127,239,94,63,0,93,36,62,153,141,144,192,99,161,65
746+  7BFB 80 49 3E 9E
746+  7BFF EC 5E 30 AB
746+  7C03 1F BD 8B 9C
746+  7C07 8A 7F EF 5E
746+  7C0B 3F 00 5D 24
746+  7C0F 3E 99 8D 90
746+  7C13 C0 63 A1 41
747+  7C17 FF 41 E1 BF                          db	255,65,225,191,188,61,213,60,63,84,0,40,152,31,128,72,223,29,29,87,132,95,253,31,58,31,235,64,32,240,94,232
747+  7C1B BC 3D D5 3C
747+  7C1F 3F 54 00 28
747+  7C23 98 1F 80 48
747+  7C27 DF 1D 1D 57
747+  7C2B 84 5F FD 1F
747+  7C2F 3A 1F EB 40
747+  7C33 20 F0 5E E8
748+  7C37 6F 80 2E 40                          db	111,128,46,64,142,159,131,159,31,245,123,31,48,213,65,30,155,173,48,31,236,64,252,45,166,62,115,56,237,31,65,240
748+  7C3B 8E 9F 83 9F
748+  7C3F 1F F5 7B 1F
748+  7C43 30 D5 41 1E
748+  7C47 9B AD 30 1F
748+  7C4B EC 40 FC 2D
748+  7C4F A6 3E 73 38
748+  7C53 ED 1F 41 F0
749+  7C57 D9 01 AD F6                          db	217,1,173,246,2,128,28,26,139,162,248,45,85,191,114,83,172,64,112,173,197,112,96,72,141,249,227,61,158,88,78,143
749+  7C5B 02 80 1C 1A
749+  7C5F 8B A2 F8 2D
749+  7C63 55 BF 72 53
749+  7C67 AC 40 70 AD
749+  7C6B C5 70 60 48
749+  7C6F 8D F9 E3 3D
749+  7C73 9E 58 4E 8F
750+  7C77 69 1F C0 AC                          db	105,31,192,172,65,173,245,31,192,149,228,247,61,30,0,117,31,64,40,196,81,34,36,132,87,225,32,220,196,106,223,96
750+  7C7B 41 AD F5 1F
750+  7C7F C0 95 E4 F7
750+  7C83 3D 1E 00 75
750+  7C87 1F 40 28 C4
750+  7C8B 51 22 24 84
750+  7C8F 57 E1 20 DC
750+  7C93 C4 6A DF 60
751+  7C97 6A 40 03 FE                          db	106,64,3,254,101,95,146,108,159,26,72,213,78,31,48,158,64,174,3,63,249,123,30,246,167,146,191,94,32,122,142,173
751+  7C9B 65 5F 92 6C
751+  7C9F 9F 1A 48 D5
751+  7CA3 4E 1F 30 9E
751+  7CA7 40 AE 03 3F
751+  7CAB F9 7B 1E F6
751+  7CAF A7 92 BF 5E
751+  7CB3 20 7A 8E AD
752+  7CB7 ED 3F DB EA                          db	237,63,219,234,30,82,32,129,64,194,244,75,32,205,41,44,63,201,230,182,153,119,191,64,176,130,179,173,187,63,30,159
752+  7CBB 1E 52 20 81
752+  7CBF 40 C2 F4 4B
752+  7CC3 20 CD 29 2C
752+  7CC7 3F C9 E6 B6
752+  7CCB 99 77 BF 40
752+  7CCF B0 82 B3 AD
752+  7CD3 BB 3F 1E 9F
753+  7CD7 20 EC DB 1F                          db	32,236,219,31,150,97,206,173,249,63,124,250,159,126,223,185,97,74,95,240,36,63,138,170,229,195,205,63,97,103,173,203
753+  7CDB 96 61 CE AD
753+  7CDF F9 3F 7C FA
753+  7CE3 9F 7E DF B9
753+  7CE7 61 4A 5F F0
753+  7CEB 24 3F 8A AA
753+  7CEF E5 C3 CD 3F
753+  7CF3 61 67 AD CB
754+  7CF7 5F 5D 3A 41                          db	95,93,58,65,195,94,63,88,172,91,173,221,176,10,205,93,194,220,61,247,63,97,102,173,176,142,139,244,131,214,63,162
754+  7CFB C3 5E 3F 58
754+  7CFF AC 5B AD DD
754+  7D03 B0 0A CD 5D
754+  7D07 C2 DC 3D F7
754+  7D0B 3F 61 66 AD
754+  7D0F B0 8E 8B F4
754+  7D13 83 D6 3F A2
755+  7D17 16 A4 37 1F                          db	22,164,55,31,25,62,63,63,32,113,62,104,63,129,160,191,187,0,62,194,158,51,30,61,226,68,44,31,236,226,164,31
755+  7D1B 19 3E 3F 3F
755+  7D1F 20 71 3E 68
755+  7D23 3F 81 A0 BF
755+  7D27 BB 00 3E C2
755+  7D2B 9E 33 1E 3D
755+  7D2F E2 44 2C 1F
755+  7D33 EC E2 A4 1F
756+  7D37 3C 8C FF FF                          db	60,140,255,255,32,173,56,217,30,198,223,34,98,55,124,30,142,31,142,155,9,138,223,28,30,143,31,141,124,184,31,118
756+  7D3B 20 AD 38 D9
756+  7D3F 1E C6 DF 22
756+  7D43 62 37 7C 1E
756+  7D47 8E 1F 8E 9B
756+  7D4B 09 8A DF 1C
756+  7D4F 1E 8F 1F 8D
756+  7D53 7C B8 1F 76
757+  7D57 1E 3E 1F 30                          db	30,62,31,48,155,33,89,31,231,124,31,135,16,30,192,0,8
757+  7D5B 9B 21 59 1F
757+  7D5F E7 7C 1F 87
757+  7D63 10 1E C0 00
757+  7D67 08
758+  7D68              red_october
759+  7D68 20                                   db	32			; A sprite szélessége byte-okban
760+  7D69 78                                   db	120			; A sprite magassága
761+  7D6A CC 80 3E E4                          db	204,128,62,228,0,76,11,208,63,124,31,140,129,129,31,76,14,110,34,28,12,0,27,31,65,12,234,31,12,29,31,64
761+  7D6E 00 4C 0B D0
761+  7D72 3F 7C 1F 8C
761+  7D76 81 81 1F 4C
761+  7D7A 0E 6E 22 1C
761+  7D7E 0C 00 1B 1F
761+  7D82 41 0C EA 1F
761+  7D86 0C 1D 1F 40
762+  7D8A 8C 72 21 1F                          db	140,114,33,31,12,242,31,12,76,6,128,159,65,140,148,31,50,162,17,92,31,0,62,31,76,135,184,31,32,121,31,12
762+  7D8E 0C F2 1F 0C
762+  7D92 4C 06 80 9F
762+  7D96 41 8C 94 1F
762+  7D9A 32 A2 11 5C
762+  7D9E 1F 00 3E 1F
762+  7DA2 4C 87 B8 1F
762+  7DA6 20 79 1F 0C
763+  7DAA 0F 47 1E DC                          db	15,71,30,220,64,18,122,31,140,24,60,158,96,26,30,225,64,222,30,31,25,123,141,96,67,12,95,31,4,93,12,173
763+  7DAE 40 12 7A 1F
763+  7DB2 8C 18 3C 9E
763+  7DB6 60 1A 1E E1
763+  7DBA 40 DE 1E 1F
763+  7DBE 19 7B 8D 60
763+  7DC2 43 0C 5F 1F
763+  7DC6 04 5D 0C AD
764+  7DCA 1F 4C 1F 0C                          db	31,76,31,12,14,195,63,22,62,160,31,31,1,14,161,31,140,191,31,1,5,135,160,63,93,31,67,12,168,31,140,115
764+  7DCE 0E C3 3F 16
764+  7DD2 3E A0 1F 1F
764+  7DD6 01 0E A1 1F
764+  7DDA 8C BF 1F 01
764+  7DDE 05 87 A0 3F
764+  7DE2 5D 1F 43 0C
764+  7DE6 A8 1F 8C 73
765+  7DEA 1F 3E 83 F4                          db	31,62,131,244,31,12,61,31,14,192,32,130,254,29,177,67,188,94,0,28,202,31,190,136,76,126,31,26,157,73,33,31
765+  7DEE 1F 0C 3D 1F
765+  7DF2 0E C0 20 82
765+  7DF6 FE 1D B1 43
765+  7DFA BC 5E 00 1C
765+  7DFE CA 1F BE 88
765+  7E02 4C 7E 1F 1A
765+  7E06 9D 49 21 1F
766+  7E0A E4 FC 43 4C                          db	228,252,67,76,203,220,16,196,176,173,30,192,31,25,204,0,0,2
766+  7E0E CB DC 10 C4
766+  7E12 B0 AD 1E C0
766+  7E16 1F 19 CC 00
766+  7E1A 00 02
767+  7E1C
768+  7E1C              sotet_kastely
769+  7E1C 20                                   db	32			; A sprite szélessége byte-okban
770+  7E1D 78                                   db	120			; A sprite magassága
771+  7E1E C3 80 24 31                          db	195,128,36,49,0,129,194,67,30,18,131,34,193,66,68,12,192,194,193,127,31,17,207,20,10,113,63,202,32,194,63,230
771+  7E22 00 81 C2 43
771+  7E26 1E 12 83 22
771+  7E2A C1 42 44 0C
771+  7E2E C0 C2 C1 7F
771+  7E32 1F 11 CF 14
771+  7E36 0A 71 3F CA
771+  7E3A 20 C2 3F E6
772+  7E3E 02 4A 1C 83                          db	2,74,28,131,192,192,13,126,113,19,66,155,31,10,184,0,217,31,32,18,163,31,3,71,66,170,31,129,3,122,31,127
772+  7E42 C0 C0 0D 7E
772+  7E46 71 13 42 9B
772+  7E4A 1F 0A B8 00
772+  7E4E D9 1F 20 12
772+  7E52 A3 1F 03 47
772+  7E56 42 AA 1F 81
772+  7E5A 03 7A 1F 7F
773+  7E5E 47 43 D4 1F                          db	71,67,212,31,84,64,159,92,75,225,204,51,19,193,17,226,66,231,31,63,79,129,115,60,18,201,11,193,209,31,67,241
773+  7E62 54 40 9F 5C
773+  7E66 4B E1 CC 33
773+  7E6A 13 C1 11 E2
773+  7E6E 42 E7 1F 3F
773+  7E72 4F 81 73 3C
773+  7E76 12 C9 0B C1
773+  7E7A D1 1F 43 F1
774+  7E7E 13 C4 1F 03                          db	19,196,31,3,67,120,191,34,66,196,95,193,3,195,58,31,195,131,4,31,192,8,115,31,132,247,38,31,129,119,66,1
774+  7E82 43 78 BF 22
774+  7E86 42 C4 5F C1
774+  7E8A 03 C3 3A 1F
774+  7E8E C3 83 04 1F
774+  7E92 C0 08 73 1F
774+  7E96 84 F7 26 1F
774+  7E9A 81 77 42 01
775+  7E9E 3F BB 1D 81                          db	63,187,29,129,31,213,41,162,19,42,31,23,235,31,5,31,148,138,254,5,29,63,31,8,150,63,238,10,29,19,63,225
775+  7EA2 1F D5 29 A2
775+  7EA6 13 2A 1F 17
775+  7EAA EB 1F 05 1F
775+  7EAE 94 8A FE 05
775+  7EB2 1D 3F 1F 08
775+  7EB6 96 3F EE 0A
775+  7EBA 1D 13 3F E1
776+  7EBE 00 B9 3F A7                          db	0,185,63,167,0,31,65,129,52,31,252,20,40,179,14,199,19,216,31,234,241,20,243,19,207,11,8,195,33,200,31,192
776+  7EC2 00 1F 41 81
776+  7EC6 34 1F FC 14
776+  7ECA 28 B3 0E C7
776+  7ECE 13 D8 1F EA
776+  7ED2 F1 14 F3 13
776+  7ED6 CF 0B 08 C3
776+  7EDA 21 C8 1F C0
777+  7EDE 27 1F 99 7F                          db	39,31,153,127,3,4,242,95,200,40,129,147,198,8,99,31,132,57,182,79,19,5,179,31,192,9,239,31,76,136,3,79
777+  7EE2 03 04 F2 5F
777+  7EE6 C8 28 81 93
777+  7EEA C6 08 63 1F
777+  7EEE 84 39 B6 4F
777+  7EF2 13 05 B3 1F
777+  7EF6 C0 09 EF 1F
777+  7EFA 4C 88 03 4F
778+  7EFE 03 09 0A 90                          db	3,9,10,144,31,67,131,181,31,138,180,194,26,31,70,192,32,31,194,119,31,214,180,29,31,180,0,67,40,31,67,130
778+  7F02 1F 43 83 B5
778+  7F06 1F 8A B4 C2
778+  7F0A 1A 1F 46 C0
778+  7F0E 20 1F C2 77
778+  7F12 1F D6 B4 1D
778+  7F16 1F B4 00 43
778+  7F1A 28 1F 43 82
779+  7F1E B4 1F 83 7A                          db	180,31,131,122,223,69,161,31,193,64,63,193,67,3,194,143,9,140,31,171,144,143,9,130,68,31,131,18,199,31,193,0
779+  7F22 DF 45 A1 1F
779+  7F26 C1 40 3F C1
779+  7F2A 43 03 C2 8F
779+  7F2E 09 8C 1F AB
779+  7F32 90 8F 09 82
779+  7F36 44 1F 83 12
779+  7F3A C7 1F C1 00
780+  7F3E 42 1F C2 03                          db	66,31,194,3,47,31,159,56,180,13,67,125,31,156,223,37,31,34,53,3,228,8,194,133,131,241,14,19,75,31,195,44
780+  7F42 2F 1F 9F 38
780+  7F46 B4 0D 43 7D
780+  7F4A 1F 9C DF 25
780+  7F4E 1F 22 35 03
780+  7F52 E4 08 C2 85
780+  7F56 83 F1 0E 13
780+  7F5A 4B 1F C3 2C
781+  7F5E 88 1F B9 03                          db	136,31,185,3,16,4,193,16,247,31,217,4,3,66,252,31,9,211,14,207,31,0,52,31,240,0,30,92,31,159,199,221
781+  7F62 10 04 C1 10
781+  7F66 F7 1F D9 04
781+  7F6A 03 42 FC 1F
781+  7F6E 09 D3 0E CF
781+  7F72 1F 00 34 1F
781+  7F76 F0 00 1E 5C
781+  7F7A 1F 9F C7 DD
782+  7F7E 1F 97 C6 C6                          db	31,151,198,198,21,69,31,194,61,104,33,131,86,57,48,225,231,0,159,43,133,8,168,22,97,58,129,13,241,32,28,200
782+  7F82 15 45 1F C2
782+  7F86 3D 68 21 83
782+  7F8A 56 39 30 E1
782+  7F8E E7 00 9F 2B
782+  7F92 85 08 A8 16
782+  7F96 61 3A 81 0D
782+  7F9A F1 20 1C C8
783+  7F9E 00 03 D8 1F                          db	0,3,216,31,152,97,116,191,34,195,157,1,71,3,132,179,63,64,99,192,13,12,128,251,225,56,229,201,20,198,6,195
783+  7FA2 98 61 74 BF
783+  7FA6 22 C3 9D 01
783+  7FAA 47 03 84 B3
783+  7FAE 3F 40 63 C0
783+  7FB2 0D 0C 80 FB
783+  7FB6 E1 38 E5 C9
783+  7FBA 14 C6 06 C3
784+  7FBE 5F 50 42 FC                          db	95,80,66,252,34,80,188,71,132,255,17,132,192,197,254,18,67,66,152,163,227,134,129,21,133,52,67,55,31,31,65,28
784+  7FC2 22 50 BC 47
784+  7FC6 84 FF 11 84
784+  7FCA C0 C5 FE 12
784+  7FCE 43 42 98 A3
784+  7FD2 E3 86 81 15
784+  7FD6 85 34 43 37
784+  7FDA 1F 1F 41 1C
785+  7FDE A6 7C 63 10                          db	166,124,99,16,163,95,193,180,66,82,3,168,0,195,43,0,128,0,64
785+  7FE2 A3 5F C1 B4
785+  7FE6 42 52 03 A8
785+  7FEA 00 C3 2B 00
785+  7FEE 80 00 40
786+  7FF1
# file closed: resources.a80
886   7FF1
# file closed: megamenu.a80

Value    Label
------ - -----------------------------------------------------------
0x7D68   red_october
0x7E1C   sotet_kastely
0x712A   mp_soccer
0x68F5   gunfright
0x77D5   raster_runner
0x5F72   lode_runner
0x5A21   nebulus
0x55DA   bomberman
0x520B   im
0x26BA   games_info2021
0x5101   multitetris
0x4F34   bomber
0x4EB0   xorgame
0x4B47   vote
0x49A6   quadrillion
0x45FB   renagade
0x3CAD   ikari
0x3827   puckman
0x252A   games_info2020
0x375F   filler
0x3655   gombocfalo
0x34F4   crossfire
0x303B   dkj
0x2ED9   fuss
0x29CF   ikplus
0x23FE   games_info2019
0x0000 X GamesInfo.Image
0x23FD X SAVED_GRAPH_MODE
0x23FC X SAVED_MEM_PAGES
0x23EB   dzx7t_offset_end
0x23F4   dzx7t_exit
0x23BD   dzx7t_len_value_loop
0x23C7   dzx7t_len_value_START
0x23B3   dzx7t_len_size_loop
0x23F8   dzx7t_load_bits
0x23A8   dzx7t_main_loop
0x23A6   dzx7t_copy_byte_loop
0x239F   DrawHorizontalLineL1
0x2385   StringEnd
0x237B   CopyNextCharacter
0x2388   WRONG_SYMBOL_TYPE
0x2388   SYMBOL_NAME_DIFFERENT
0x2364   COMPARE_SYMBOL
0x238C   NEXT_SYMBOL
0x235A   SEARCH_FOR_SYMBOL
0x2350   set_paging
0x22E2 X Char_Z
0x22D8 X Char_Y
0x22CE X Char_X
0x22C4 X Char_W
0x22BA X Char_V
0x22B0 X Char_U
0x22A6 X Char_T
0x229C X Char_S
0x2292 X Char_R
0x2288 X Char_Q
0x227E X Char_P
0x2274 X Char_O
0x226A X Char_N
0x2260 X Char_M
0x2256 X Char_L
0x224C X Char_K
0x2242 X Char_J
0x2238 X Char_I
0x222E X Char_H
0x2224 X Char_G
0x221A X Char_F
0x2210 X Char_E
0x2206 X Char_D
0x21FC X Char_C
0x21F2 X Char_B
0x21E8 X Char_A
0x21DE X Char_9
0x21D4 X Char_8
0x21CA X Char_7
0x21C0 X Char_6
0x21B6 X Char_5
0x21AC X Char_4
0x21A2 X Char_3
0x2198 X Char_2
0x218E X Char_1
0x2184 X Char_0
0x2183 X CharacterHeight
0x2182 X CharacterWidth
0x2181 X CharacterCnt
0x00AA X BORDER_WHITE
0x00A8 X BORDER_YELLOW
0x00A2 X BORDER_CYAN
0x00A0 X BORDER_GREEN
0x008A X BORDER_MAGENTA
0x008A X BORDER_RED
0x0082 X BORDER_BLUE
0x0080 X BORDER_BLACK2
0x002A X BORDER_GRAY
0x0028 X BORDER_DARKYELLOW
0x0022 X BORDER_DARKCYAN
0x0020 X BORDER_DARKGREEN
0x000A X BORDER_DARKMAGENTA
0x0008 X BORDER_DARKRED
0x0002 X BORDER_DARKBLUE
0x0000 X BORDER_BLACK
0x217F   end
0x2177   n6
0x2170 X n5
0x216E   n4
0x214B   n1
0x215E   n3
0x213E   n2
0x2173   StrLen
0x2138   n7
0x2152   modify
0x2128   NumBfrEmpty
0x2121   NumBfr
0x2120   X10
0x2116   NumRef
0x2112   jump
0x212A   ConvertDecNum16
0x20FB   SkipChar
0x0007   CHAR_HEIGHT
0x20EA   PutChar1
0x20D4   Inner
0x20CE   StoreStartPos
0x20B4   Skip2_2
0x20A8   Skip2_1
0x2092   Skip1_2
0x2086   Skip1_1
0x2072   Inner2
0x204B   Inner1
0x2184   CharacterTable
0x2031   CharDraw
0x202C   jump1
0x22EC   Char_Squere
0x201F   CheckNumberChar
0x2328   Char_Exclamation
0x2016   jump7
0x2332   Char_Minus
0x200D   jump6
0x2314   Char_DotDot
0x2004   jump5
0x231E   Char_Arrow
0x1FFB   jump4
0x230A   Char_Dot
0x1FF2   jump3
0x2300   Char_Plus
0x1FE9   jump2
0x2043   RawAddrOk
0x22F6   Char_Space
0x1FD1   DrawSpaceLoop
0x20BC   PosToVidmemAddress
0x1FDB   NormalSpace
0x1FC2   jmpNotProp
0x1FE0   jump0
0x1FB0   SpacePropFlg
0x206D   PutCharMask
0x2099   CharColorSaveMask2
0x2077   CharColorSaveMask1
0x1FAF   Exit
0x2046   PutCharModeJump
0x2049   PutCharOverwrite
0x2059   CharColorSave2
0x204C   CharColorSave1
0x1FA3   MaskMode
0x205F   CharBackgroundSave2
0x2052   CharBackgroundSave1
0x1F6D   CharBackgroundSave
0x1F6C   CharColorSave
0x0055   COLOR_WHITE
0x0054   COLOR_YELLOW
0x0051   COLOR_CYAN
0x0050   COLOR_GREEN
0x0045   COLOR_MAGENTA
0x0044   COLOR_RED
0x0041   COLOR_BLUE
0x0040   COLOR_BLACK2
0x0015   COLOR_GRAY
0x0014   COLOR_DARKYELLOW
0x0011   COLOR_DARKCYAN
0x0010   COLOR_DARKGREEN
0x0005   COLOR_DARKMAGENTA
0x0004   COLOR_DARKRED
0x0001   COLOR_DARKBLUE
0x0000   COLOR_BLACK
0x1F5C   CharColorTable
0x2346   set_paging_U0_U1_U2_U3
0x1E8B   LDecompressMultiply
0x1E8F   LDecompressNoMultiply
0x0032   GamesInfo
0x0002   GamesInfo.Title
0x1E22   index_ok
0x1EA3   RESULTS_END_STRING
0x2100   DrawNumber
0x1DE9   right_next_mask
0x1DF1   right_image_finished
0x1DC2   copy_right_image_line
0x1DC0   start_copy_right_image_line
0x1DAA   left_next_mask
0x1DB2   left_image_finished
0x1D83   copy_left_image_line
0x1D81   start_copy_left_image_line
0x1D61   next_line
0x234B   set_paging_U0_U1_VID_U3
0x1D18   LCalculatePosAddres
0x1D1B   LStorePos
0x000C   GamesCollection
0x0002   GamesCollection.Year
0x2398   DrawHorizontalLine
0x1CFB   GetMenuCoordinates
0x1CB1   LDrawMenu
0x000A   GamesCollection.Collection
0x0009   GamesCollection.YearDec
0x0001   GamesCollection.Index
0x1CA7   LNotSelected
0x1C73   LMenuNextItem
0x0000   GamesCollection.Count
0x1C69   LNextMenuItem
0x287C   GAMES_COLLECTION
0x1C50   move_left_2
0x1C46   move_left_1
0x1E82   DecompressGameScreen
0x1C1A   move_right_2
0x1C12   move_right_1
0x1D56   DrawCarousel
0x1BD2   LStoreIndex
0x1BD1   LDecrementCollectionIndex
0x1D0B   SaveSelectionCollectionPos
0x2356   LETSTRINGVARIABLE
0x1EAF   FILENAME_VARIABLE
0x1E65   GetCurrentGamesInfoAddress
0x0022   GamesInfo.File
0x1E9F   PALETTE
0x1B91   ReturnToBasic
0x1B72   LeftScrollPixel
0x1B6A   ScrollPhase3
0x1B5C   ScrollPhase2
0x1B70   LeftScrollLinePixels
0x1B50   ScrollPhase1
0x1B3F   LeftScrollLine
0x1B2D   LeftScrollNoStringEnd
0x1B36   LeftScrollPhaseNonzero
0x1B06   LeftScroll
0x1BB2   RunProgram
0x1BE1   MoveDown
0x1BC2   MoveUp
0x1BF2   MoveRight
0x1C27   move_left
0x1AF3   ScrollText
0x1ACB   WaitForKey
0x1EB1   SCROLL_TEXT
0x1FB1   PutChar
0x1D20   InitCarousel
0x1C5D   DrawMenu
0x2341   set_paging_U0_U1_U2_SYS
0x20D0   DrawStr
0x1EA5   CARTRIDGE_STRING
0x1F83   SetCharColor
0x1F6E   SetCharacterBackgroundColor
0x23A4   dzx7_turbo
0x28AC   megaplex
0x233C   set_paging_U0_U1_VID_SYS
0x1A57   RIGHT_IMAGE_ADDRESS
0x1A55   CENTER_IMAGE_ADDRESS
0x1A53   LEFT_IMAGE_ADDRESS
0x1A51   SCROLL_CHARACTER
0x1A50   SCROLL_PHASE
0x1A4F   SCROLL_TEXT_DELAY
0x1A4D   COLLECTION
0x1A4C   YEAR_DEC
0x1A4B   IMAGE_COUNT
0x1A4A   IMAGE_INDEX
0x1A49   COLLECTION_COUNT
0x1A48   COLLECTION_INDEX
0x1A46   IY_SAVE
0x1A44   IX_SAVE
0x1A59   START
0x000E   RIGHT_IMAGE_WIDTH
0x0012   LEFT_IMAGE_OFFSET
0x0078   GAME_IMAGE_HEIGHT
0x9632   RIGHT_IMAGE_COORDINATES
0x9610   CENTER_IMAGE_COORDINATES
0x9600   LEFT_IMAGE_COORDINATES
0x0020   GAME_IMAGE_WIDTH
0x0040   SCREEN_WIDTH
0x000D   RETURN
0x0006   JOY_FIRE
0x0018   JOY_DOWN
0x0005   JOY_UP
0x0013   JOY_LEFT
0x0004   JOY_RIGHT
0x000C   PAL
0x0004   VMODE
0x0093   KBD_STATUS
0x0091   KBD_CHIN
0x0090   P_U0_U1_VID_U3
0x00B0   P_U0_U1_U2_U3
0x0050   P_U0_U1_VID_SYS
0x0020 X P_SYS_U1_U2_CART
0x0030 X P_U0_U1_U2_CART
0x0070   P_U0_U1_U2_SYS
0x0071   CRTC_DATA
0x0070   CRTC_ADDRESS
0x0006 X GRAPHICS_MODE_REG
0x0002   PAGE_REG
0xE000   IMAGE_BUFFER2
0xD000   IMAGE_BUFFER1
0xC000   IMAGE_BUFFER0
0x8000   VIDEOMEM
0x0B4F   BORDER
0x0B4E   PAPER
0x0B4D   INK
0x1724   CHAIN
0x0B13 X GRAPH_MODE
0x0003   P_SAVE
0xC007 X PAGE_DATA_START_ADDRESS
0x19EF   PROGRAM_START_ADDRESS
